
multiplosPWM_v2_20MHz.elf:     file format elf32-avr

Sections:
Idx Name          Size      VMA       LMA       File off  Algn
  0 .data         00000040  00800100  0000226a  000022fe  2**0
                  CONTENTS, ALLOC, LOAD, DATA
  1 .text         0000226a  00000000  00000000  00000094  2**1
                  CONTENTS, ALLOC, LOAD, READONLY, CODE
  2 .bss          00000048  00800140  00800140  0000233e  2**0
                  ALLOC
  3 .comment      00000022  00000000  00000000  0000233e  2**0
                  CONTENTS, READONLY
  4 .note.gnu.avr.deviceinfo 00000040  00000000  00000000  00002360  2**2
                  CONTENTS, READONLY
  5 .avr.prop     0000003a  00000000  00000000  000023a0  2**0
                  CONTENTS, READONLY
  6 .debug_info   000005f4  00000000  00000000  000023da  2**0
                  CONTENTS, READONLY, DEBUGGING
  7 .debug_abbrev 000005a2  00000000  00000000  000029ce  2**0
                  CONTENTS, READONLY, DEBUGGING
  8 .debug_line   0000001d  00000000  00000000  00002f70  2**0
                  CONTENTS, READONLY, DEBUGGING
  9 .debug_str    00000208  00000000  00000000  00002f8d  2**0
                  CONTENTS, READONLY, DEBUGGING

Disassembly of section .text:

00000000 <__vectors>:
       0:	0c 94 34 00 	jmp	0x68	; 0x68 <__ctors_end>
       4:	0c 94 51 00 	jmp	0xa2	; 0xa2 <__bad_interrupt>
       8:	0c 94 51 00 	jmp	0xa2	; 0xa2 <__bad_interrupt>
       c:	0c 94 51 00 	jmp	0xa2	; 0xa2 <__bad_interrupt>
      10:	0c 94 51 00 	jmp	0xa2	; 0xa2 <__bad_interrupt>
      14:	0c 94 51 00 	jmp	0xa2	; 0xa2 <__bad_interrupt>
      18:	0c 94 51 00 	jmp	0xa2	; 0xa2 <__bad_interrupt>
      1c:	0c 94 51 00 	jmp	0xa2	; 0xa2 <__bad_interrupt>
      20:	0c 94 51 00 	jmp	0xa2	; 0xa2 <__bad_interrupt>
      24:	0c 94 b2 09 	jmp	0x1364	; 0x1364 <__vector_9>
      28:	0c 94 51 00 	jmp	0xa2	; 0xa2 <__bad_interrupt>
      2c:	0c 94 51 00 	jmp	0xa2	; 0xa2 <__bad_interrupt>
      30:	0c 94 67 09 	jmp	0x12ce	; 0x12ce <__vector_12>
      34:	0c 94 51 00 	jmp	0xa2	; 0xa2 <__bad_interrupt>
      38:	0c 94 51 00 	jmp	0xa2	; 0xa2 <__bad_interrupt>
      3c:	0c 94 51 00 	jmp	0xa2	; 0xa2 <__bad_interrupt>
      40:	0c 94 51 00 	jmp	0xa2	; 0xa2 <__bad_interrupt>
      44:	0c 94 51 00 	jmp	0xa2	; 0xa2 <__bad_interrupt>
      48:	0c 94 1f 09 	jmp	0x123e	; 0x123e <__vector_18>
      4c:	0c 94 51 00 	jmp	0xa2	; 0xa2 <__bad_interrupt>
      50:	0c 94 51 00 	jmp	0xa2	; 0xa2 <__bad_interrupt>
      54:	0c 94 45 09 	jmp	0x128a	; 0x128a <__vector_21>
      58:	0c 94 51 00 	jmp	0xa2	; 0xa2 <__bad_interrupt>
      5c:	0c 94 51 00 	jmp	0xa2	; 0xa2 <__bad_interrupt>
      60:	0c 94 51 00 	jmp	0xa2	; 0xa2 <__bad_interrupt>
      64:	0c 94 51 00 	jmp	0xa2	; 0xa2 <__bad_interrupt>

00000068 <__ctors_end>:
      68:	11 24       	eor	r1, r1
      6a:	1f be       	out	0x3f, r1	; 63
      6c:	cf ef       	ldi	r28, 0xFF	; 255
      6e:	d8 e0       	ldi	r29, 0x08	; 8
      70:	de bf       	out	0x3e, r29	; 62
      72:	cd bf       	out	0x3d, r28	; 61

00000074 <__do_copy_data>:
      74:	11 e0       	ldi	r17, 0x01	; 1
      76:	a0 e0       	ldi	r26, 0x00	; 0
      78:	b1 e0       	ldi	r27, 0x01	; 1
      7a:	ea e6       	ldi	r30, 0x6A	; 106
      7c:	f2 e2       	ldi	r31, 0x22	; 34
      7e:	02 c0       	rjmp	.+4      	; 0x84 <__do_copy_data+0x10>
      80:	05 90       	lpm	r0, Z+
      82:	0d 92       	st	X+, r0
      84:	a0 34       	cpi	r26, 0x40	; 64
      86:	b1 07       	cpc	r27, r17
      88:	d9 f7       	brne	.-10     	; 0x80 <__do_copy_data+0xc>

0000008a <__do_clear_bss>:
      8a:	21 e0       	ldi	r18, 0x01	; 1
      8c:	a0 e4       	ldi	r26, 0x40	; 64
      8e:	b1 e0       	ldi	r27, 0x01	; 1
      90:	01 c0       	rjmp	.+2      	; 0x94 <.do_clear_bss_start>

00000092 <.do_clear_bss_loop>:
      92:	1d 92       	st	X+, r1

00000094 <.do_clear_bss_start>:
      94:	a8 38       	cpi	r26, 0x88	; 136
      96:	b2 07       	cpc	r27, r18
      98:	e1 f7       	brne	.-8      	; 0x92 <.do_clear_bss_loop>
      9a:	0e 94 62 0a 	call	0x14c4	; 0x14c4 <main>
      9e:	0c 94 33 11 	jmp	0x2266	; 0x2266 <_exit>

000000a2 <__bad_interrupt>:
      a2:	0c 94 00 00 	jmp	0	; 0x0 <__vectors>

000000a6 <usartReceiveStd>:
      a6:	80 91 c0 00 	lds	r24, 0x00C0	; 0x8000c0 <__TEXT_REGION_LENGTH__+0x7e00c0>
      aa:	87 ff       	sbrs	r24, 7
      ac:	fc cf       	rjmp	.-8      	; 0xa6 <usartReceiveStd>
      ae:	80 91 c6 00 	lds	r24, 0x00C6	; 0x8000c6 <__TEXT_REGION_LENGTH__+0x7e00c6>
      b2:	90 e0       	ldi	r25, 0x00	; 0
      b4:	08 95       	ret

000000b6 <globalInterruptEnable>:
      b6:	78 94       	sei
      b8:	08 95       	ret

000000ba <globalInterruptDisable>:
      ba:	f8 94       	cli
      bc:	08 95       	ret

000000be <systemClockSetPrescaler>:
      be:	90 e0       	ldi	r25, 0x00	; 0
      c0:	89 30       	cpi	r24, 0x09	; 9
      c2:	91 05       	cpc	r25, r1
      c4:	48 f5       	brcc	.+82     	; 0x118 <systemClockSetPrescaler+0x5a>
      c6:	fc 01       	movw	r30, r24
      c8:	e8 59       	subi	r30, 0x98	; 152
      ca:	ff 4f       	sbci	r31, 0xFF	; 255
      cc:	0c 94 1b 0e 	jmp	0x1c36	; 0x1c36 <__tablejump2__>
      d0:	8a 00       	.word	0x008a	; ????
      d2:	71 00       	.word	0x0071	; ????
      d4:	7c 00       	.word	0x007c	; ????
      d6:	7e 00       	.word	0x007e	; ????
      d8:	80 00       	.word	0x0080	; ????
      da:	82 00       	.word	0x0082	; ????
      dc:	84 00       	.word	0x0084	; ????
      de:	86 00       	.word	0x0086	; ????
      e0:	88 00       	.word	0x0088	; ????
      e2:	81 e0       	ldi	r24, 0x01	; 1
      e4:	9f b7       	in	r25, 0x3f	; 63
      e6:	f8 94       	cli
      e8:	20 e8       	ldi	r18, 0x80	; 128
      ea:	20 93 61 00 	sts	0x0061, r18	; 0x800061 <__TEXT_REGION_LENGTH__+0x7e0061>
      ee:	80 93 61 00 	sts	0x0061, r24	; 0x800061 <__TEXT_REGION_LENGTH__+0x7e0061>
      f2:	9f bf       	out	0x3f, r25	; 63
      f4:	80 e0       	ldi	r24, 0x00	; 0
      f6:	08 95       	ret
      f8:	82 e0       	ldi	r24, 0x02	; 2
      fa:	f4 cf       	rjmp	.-24     	; 0xe4 <systemClockSetPrescaler+0x26>
      fc:	83 e0       	ldi	r24, 0x03	; 3
      fe:	f2 cf       	rjmp	.-28     	; 0xe4 <systemClockSetPrescaler+0x26>
     100:	84 e0       	ldi	r24, 0x04	; 4
     102:	f0 cf       	rjmp	.-32     	; 0xe4 <systemClockSetPrescaler+0x26>
     104:	85 e0       	ldi	r24, 0x05	; 5
     106:	ee cf       	rjmp	.-36     	; 0xe4 <systemClockSetPrescaler+0x26>
     108:	86 e0       	ldi	r24, 0x06	; 6
     10a:	ec cf       	rjmp	.-40     	; 0xe4 <systemClockSetPrescaler+0x26>
     10c:	87 e0       	ldi	r24, 0x07	; 7
     10e:	ea cf       	rjmp	.-44     	; 0xe4 <systemClockSetPrescaler+0x26>
     110:	88 e0       	ldi	r24, 0x08	; 8
     112:	e8 cf       	rjmp	.-48     	; 0xe4 <systemClockSetPrescaler+0x26>
     114:	80 e0       	ldi	r24, 0x00	; 0
     116:	e6 cf       	rjmp	.-52     	; 0xe4 <systemClockSetPrescaler+0x26>
     118:	87 e0       	ldi	r24, 0x07	; 7
     11a:	08 95       	ret

0000011c <eepromSetOperationMode>:
     11c:	9f b3       	in	r25, 0x1f	; 31
     11e:	40 e1       	ldi	r20, 0x10	; 16
     120:	84 9f       	mul	r24, r20
     122:	90 01       	movw	r18, r0
     124:	11 24       	eor	r1, r1
     126:	9f 7c       	andi	r25, 0xCF	; 207
     128:	92 2b       	or	r25, r18
     12a:	9f bb       	out	0x1f, r25	; 31
     12c:	08 95       	ret

0000012e <eepromReadyActivateInterrupt>:
     12e:	fb 9a       	sbi	0x1f, 3	; 31
     130:	08 95       	ret

00000132 <eepromReadyDeactivateInterrupt>:
     132:	fb 98       	cbi	0x1f, 3	; 31
     134:	08 95       	ret

00000136 <eepromWrite>:
     136:	f9 99       	sbic	0x1f, 1	; 31
     138:	fe cf       	rjmp	.-4      	; 0x136 <eepromWrite>
     13a:	27 b7       	in	r18, 0x37	; 55
     13c:	93 70       	andi	r25, 0x03	; 3
     13e:	92 bd       	out	0x22, r25	; 34
     140:	81 bd       	out	0x21, r24	; 33
     142:	60 bd       	out	0x20, r22	; 32
     144:	8f b7       	in	r24, 0x3f	; 63
     146:	f8 94       	cli
     148:	fa 9a       	sbi	0x1f, 2	; 31
     14a:	f9 9a       	sbi	0x1f, 1	; 31
     14c:	8f bf       	out	0x3f, r24	; 63
     14e:	08 95       	ret

00000150 <eepromRead>:
     150:	f9 99       	sbic	0x1f, 1	; 31
     152:	fe cf       	rjmp	.-4      	; 0x150 <eepromRead>
     154:	93 70       	andi	r25, 0x03	; 3
     156:	92 bd       	out	0x22, r25	; 34
     158:	81 bd       	out	0x21, r24	; 33
     15a:	f8 9a       	sbi	0x1f, 0	; 31
     15c:	80 b5       	in	r24, 0x20	; 32
     15e:	08 95       	ret

00000160 <globalPullUpEnable>:
     160:	85 b7       	in	r24, 0x35	; 53
     162:	8f 7e       	andi	r24, 0xEF	; 239
     164:	85 bf       	out	0x35, r24	; 53
     166:	08 95       	ret

00000168 <pullUpDisable>:
     168:	85 b7       	in	r24, 0x35	; 53
     16a:	80 61       	ori	r24, 0x10	; 16
     16c:	85 bf       	out	0x35, r24	; 53
     16e:	08 95       	ret

00000170 <int0Config>:
     170:	82 30       	cpi	r24, 0x02	; 2
     172:	f1 f0       	breq	.+60     	; 0x1b0 <int0Config+0x40>
     174:	30 f4       	brcc	.+12     	; 0x182 <int0Config+0x12>
     176:	88 23       	and	r24, r24
     178:	b1 f0       	breq	.+44     	; 0x1a6 <int0Config+0x36>
     17a:	81 30       	cpi	r24, 0x01	; 1
     17c:	b9 f0       	breq	.+46     	; 0x1ac <int0Config+0x3c>
     17e:	81 e0       	ldi	r24, 0x01	; 1
     180:	08 95       	ret
     182:	83 30       	cpi	r24, 0x03	; 3
     184:	c1 f0       	breq	.+48     	; 0x1b6 <int0Config+0x46>
     186:	8f 3f       	cpi	r24, 0xFF	; 255
     188:	d1 f7       	brne	.-12     	; 0x17e <int0Config+0xe>
     18a:	6f 3f       	cpi	r22, 0xFF	; 255
     18c:	c9 f0       	breq	.+50     	; 0x1c0 <int0Config+0x50>
     18e:	80 91 69 00 	lds	r24, 0x0069	; 0x800069 <__TEXT_REGION_LENGTH__+0x7e0069>
     192:	8c 7f       	andi	r24, 0xFC	; 252
     194:	61 30       	cpi	r22, 0x01	; 1
     196:	89 f0       	breq	.+34     	; 0x1ba <int0Config+0x4a>
     198:	88 f0       	brcs	.+34     	; 0x1bc <int0Config+0x4c>
     19a:	62 30       	cpi	r22, 0x02	; 2
     19c:	99 f0       	breq	.+38     	; 0x1c4 <int0Config+0x54>
     19e:	63 30       	cpi	r22, 0x03	; 3
     1a0:	99 f0       	breq	.+38     	; 0x1c8 <int0Config+0x58>
     1a2:	82 e0       	ldi	r24, 0x02	; 2
     1a4:	08 95       	ret
     1a6:	5a 98       	cbi	0x0b, 2	; 11
     1a8:	52 9a       	sbi	0x0a, 2	; 10
     1aa:	ef cf       	rjmp	.-34     	; 0x18a <int0Config+0x1a>
     1ac:	5a 9a       	sbi	0x0b, 2	; 11
     1ae:	fc cf       	rjmp	.-8      	; 0x1a8 <int0Config+0x38>
     1b0:	5a 98       	cbi	0x0b, 2	; 11
     1b2:	52 98       	cbi	0x0a, 2	; 10
     1b4:	ea cf       	rjmp	.-44     	; 0x18a <int0Config+0x1a>
     1b6:	5a 9a       	sbi	0x0b, 2	; 11
     1b8:	fc cf       	rjmp	.-8      	; 0x1b2 <int0Config+0x42>
     1ba:	81 60       	ori	r24, 0x01	; 1
     1bc:	80 93 69 00 	sts	0x0069, r24	; 0x800069 <__TEXT_REGION_LENGTH__+0x7e0069>
     1c0:	80 e0       	ldi	r24, 0x00	; 0
     1c2:	08 95       	ret
     1c4:	82 60       	ori	r24, 0x02	; 2
     1c6:	fa cf       	rjmp	.-12     	; 0x1bc <int0Config+0x4c>
     1c8:	83 60       	ori	r24, 0x03	; 3
     1ca:	f8 cf       	rjmp	.-16     	; 0x1bc <int0Config+0x4c>

000001cc <int0ActivateInterrupt>:
     1cc:	e8 9a       	sbi	0x1d, 0	; 29
     1ce:	08 95       	ret

000001d0 <int0DeactivateInterrupt>:
     1d0:	e8 98       	cbi	0x1d, 0	; 29
     1d2:	08 95       	ret

000001d4 <int0ClearInterruptRequest>:
     1d4:	e0 9a       	sbi	0x1c, 0	; 28
     1d6:	08 95       	ret

000001d8 <int1Config>:
     1d8:	82 30       	cpi	r24, 0x02	; 2
     1da:	f1 f0       	breq	.+60     	; 0x218 <int1Config+0x40>
     1dc:	30 f4       	brcc	.+12     	; 0x1ea <int1Config+0x12>
     1de:	88 23       	and	r24, r24
     1e0:	b1 f0       	breq	.+44     	; 0x20e <int1Config+0x36>
     1e2:	81 30       	cpi	r24, 0x01	; 1
     1e4:	b9 f0       	breq	.+46     	; 0x214 <int1Config+0x3c>
     1e6:	81 e0       	ldi	r24, 0x01	; 1
     1e8:	08 95       	ret
     1ea:	83 30       	cpi	r24, 0x03	; 3
     1ec:	c1 f0       	breq	.+48     	; 0x21e <int1Config+0x46>
     1ee:	8f 3f       	cpi	r24, 0xFF	; 255
     1f0:	d1 f7       	brne	.-12     	; 0x1e6 <int1Config+0xe>
     1f2:	6f 3f       	cpi	r22, 0xFF	; 255
     1f4:	c9 f0       	breq	.+50     	; 0x228 <int1Config+0x50>
     1f6:	80 91 69 00 	lds	r24, 0x0069	; 0x800069 <__TEXT_REGION_LENGTH__+0x7e0069>
     1fa:	83 7f       	andi	r24, 0xF3	; 243
     1fc:	61 30       	cpi	r22, 0x01	; 1
     1fe:	89 f0       	breq	.+34     	; 0x222 <int1Config+0x4a>
     200:	88 f0       	brcs	.+34     	; 0x224 <int1Config+0x4c>
     202:	62 30       	cpi	r22, 0x02	; 2
     204:	99 f0       	breq	.+38     	; 0x22c <int1Config+0x54>
     206:	63 30       	cpi	r22, 0x03	; 3
     208:	99 f0       	breq	.+38     	; 0x230 <int1Config+0x58>
     20a:	82 e0       	ldi	r24, 0x02	; 2
     20c:	08 95       	ret
     20e:	5b 98       	cbi	0x0b, 3	; 11
     210:	53 9a       	sbi	0x0a, 3	; 10
     212:	ef cf       	rjmp	.-34     	; 0x1f2 <int1Config+0x1a>
     214:	5b 9a       	sbi	0x0b, 3	; 11
     216:	fc cf       	rjmp	.-8      	; 0x210 <int1Config+0x38>
     218:	5b 98       	cbi	0x0b, 3	; 11
     21a:	53 98       	cbi	0x0a, 3	; 10
     21c:	ea cf       	rjmp	.-44     	; 0x1f2 <int1Config+0x1a>
     21e:	5b 9a       	sbi	0x0b, 3	; 11
     220:	fc cf       	rjmp	.-8      	; 0x21a <int1Config+0x42>
     222:	84 60       	ori	r24, 0x04	; 4
     224:	80 93 69 00 	sts	0x0069, r24	; 0x800069 <__TEXT_REGION_LENGTH__+0x7e0069>
     228:	80 e0       	ldi	r24, 0x00	; 0
     22a:	08 95       	ret
     22c:	88 60       	ori	r24, 0x08	; 8
     22e:	fa cf       	rjmp	.-12     	; 0x224 <int1Config+0x4c>
     230:	8c 60       	ori	r24, 0x0C	; 12
     232:	f8 cf       	rjmp	.-16     	; 0x224 <int1Config+0x4c>

00000234 <int1ActivateInterrupt>:
     234:	e9 9a       	sbi	0x1d, 1	; 29
     236:	08 95       	ret

00000238 <int1DeactivateInterrupt>:
     238:	e9 98       	cbi	0x1d, 1	; 29
     23a:	08 95       	ret

0000023c <int1ClearInterruptRequest>:
     23c:	e1 9a       	sbi	0x1c, 1	; 28
     23e:	08 95       	ret

00000240 <pcint7_0Enable>:
     240:	e8 e6       	ldi	r30, 0x68	; 104
     242:	f0 e0       	ldi	r31, 0x00	; 0
     244:	80 81       	ld	r24, Z
     246:	81 60       	ori	r24, 0x01	; 1
     248:	80 83       	st	Z, r24
     24a:	08 95       	ret

0000024c <pcint7_0Disable>:
     24c:	e8 e6       	ldi	r30, 0x68	; 104
     24e:	f0 e0       	ldi	r31, 0x00	; 0
     250:	80 81       	ld	r24, Z
     252:	8e 7f       	andi	r24, 0xFE	; 254
     254:	80 83       	st	Z, r24
     256:	08 95       	ret

00000258 <pcint7_0ClearInterruptRequest>:
     258:	d8 9a       	sbi	0x1b, 0	; 27
     25a:	08 95       	ret

0000025c <pcint0ActivateInterrupt>:
     25c:	82 30       	cpi	r24, 0x02	; 2
     25e:	b9 f0       	breq	.+46     	; 0x28e <pcint0ActivateInterrupt+0x32>
     260:	30 f4       	brcc	.+12     	; 0x26e <pcint0ActivateInterrupt+0x12>
     262:	88 23       	and	r24, r24
     264:	79 f0       	breq	.+30     	; 0x284 <pcint0ActivateInterrupt+0x28>
     266:	81 30       	cpi	r24, 0x01	; 1
     268:	81 f0       	breq	.+32     	; 0x28a <pcint0ActivateInterrupt+0x2e>
     26a:	81 e0       	ldi	r24, 0x01	; 1
     26c:	08 95       	ret
     26e:	83 30       	cpi	r24, 0x03	; 3
     270:	89 f0       	breq	.+34     	; 0x294 <pcint0ActivateInterrupt+0x38>
     272:	8f 3f       	cpi	r24, 0xFF	; 255
     274:	d1 f7       	brne	.-12     	; 0x26a <pcint0ActivateInterrupt+0xe>
     276:	80 91 6b 00 	lds	r24, 0x006B	; 0x80006b <__TEXT_REGION_LENGTH__+0x7e006b>
     27a:	81 60       	ori	r24, 0x01	; 1
     27c:	80 93 6b 00 	sts	0x006B, r24	; 0x80006b <__TEXT_REGION_LENGTH__+0x7e006b>
     280:	80 e0       	ldi	r24, 0x00	; 0
     282:	08 95       	ret
     284:	28 98       	cbi	0x05, 0	; 5
     286:	20 9a       	sbi	0x04, 0	; 4
     288:	f6 cf       	rjmp	.-20     	; 0x276 <pcint0ActivateInterrupt+0x1a>
     28a:	28 9a       	sbi	0x05, 0	; 5
     28c:	fc cf       	rjmp	.-8      	; 0x286 <pcint0ActivateInterrupt+0x2a>
     28e:	28 98       	cbi	0x05, 0	; 5
     290:	20 98       	cbi	0x04, 0	; 4
     292:	f1 cf       	rjmp	.-30     	; 0x276 <pcint0ActivateInterrupt+0x1a>
     294:	28 9a       	sbi	0x05, 0	; 5
     296:	fc cf       	rjmp	.-8      	; 0x290 <pcint0ActivateInterrupt+0x34>

00000298 <pcint0DeactivateInterrupt>:
     298:	eb e6       	ldi	r30, 0x6B	; 107
     29a:	f0 e0       	ldi	r31, 0x00	; 0
     29c:	80 81       	ld	r24, Z
     29e:	8e 7f       	andi	r24, 0xFE	; 254
     2a0:	80 83       	st	Z, r24
     2a2:	08 95       	ret

000002a4 <pcint1ActivateInterrupt>:
     2a4:	82 30       	cpi	r24, 0x02	; 2
     2a6:	b9 f0       	breq	.+46     	; 0x2d6 <pcint1ActivateInterrupt+0x32>
     2a8:	30 f4       	brcc	.+12     	; 0x2b6 <pcint1ActivateInterrupt+0x12>
     2aa:	88 23       	and	r24, r24
     2ac:	79 f0       	breq	.+30     	; 0x2cc <pcint1ActivateInterrupt+0x28>
     2ae:	81 30       	cpi	r24, 0x01	; 1
     2b0:	81 f0       	breq	.+32     	; 0x2d2 <pcint1ActivateInterrupt+0x2e>
     2b2:	81 e0       	ldi	r24, 0x01	; 1
     2b4:	08 95       	ret
     2b6:	83 30       	cpi	r24, 0x03	; 3
     2b8:	89 f0       	breq	.+34     	; 0x2dc <pcint1ActivateInterrupt+0x38>
     2ba:	8f 3f       	cpi	r24, 0xFF	; 255
     2bc:	d1 f7       	brne	.-12     	; 0x2b2 <pcint1ActivateInterrupt+0xe>
     2be:	80 91 6b 00 	lds	r24, 0x006B	; 0x80006b <__TEXT_REGION_LENGTH__+0x7e006b>
     2c2:	82 60       	ori	r24, 0x02	; 2
     2c4:	80 93 6b 00 	sts	0x006B, r24	; 0x80006b <__TEXT_REGION_LENGTH__+0x7e006b>
     2c8:	80 e0       	ldi	r24, 0x00	; 0
     2ca:	08 95       	ret
     2cc:	29 98       	cbi	0x05, 1	; 5
     2ce:	21 9a       	sbi	0x04, 1	; 4
     2d0:	f6 cf       	rjmp	.-20     	; 0x2be <pcint1ActivateInterrupt+0x1a>
     2d2:	29 9a       	sbi	0x05, 1	; 5
     2d4:	fc cf       	rjmp	.-8      	; 0x2ce <pcint1ActivateInterrupt+0x2a>
     2d6:	29 98       	cbi	0x05, 1	; 5
     2d8:	21 98       	cbi	0x04, 1	; 4
     2da:	f1 cf       	rjmp	.-30     	; 0x2be <pcint1ActivateInterrupt+0x1a>
     2dc:	29 9a       	sbi	0x05, 1	; 5
     2de:	fc cf       	rjmp	.-8      	; 0x2d8 <pcint1ActivateInterrupt+0x34>

000002e0 <pcint1DeactivateInterrupt>:
     2e0:	eb e6       	ldi	r30, 0x6B	; 107
     2e2:	f0 e0       	ldi	r31, 0x00	; 0
     2e4:	80 81       	ld	r24, Z
     2e6:	8d 7f       	andi	r24, 0xFD	; 253
     2e8:	80 83       	st	Z, r24
     2ea:	08 95       	ret

000002ec <pcint2ActivateInterrupt>:
     2ec:	82 30       	cpi	r24, 0x02	; 2
     2ee:	b9 f0       	breq	.+46     	; 0x31e <pcint2ActivateInterrupt+0x32>
     2f0:	30 f4       	brcc	.+12     	; 0x2fe <pcint2ActivateInterrupt+0x12>
     2f2:	88 23       	and	r24, r24
     2f4:	79 f0       	breq	.+30     	; 0x314 <pcint2ActivateInterrupt+0x28>
     2f6:	81 30       	cpi	r24, 0x01	; 1
     2f8:	81 f0       	breq	.+32     	; 0x31a <pcint2ActivateInterrupt+0x2e>
     2fa:	81 e0       	ldi	r24, 0x01	; 1
     2fc:	08 95       	ret
     2fe:	83 30       	cpi	r24, 0x03	; 3
     300:	89 f0       	breq	.+34     	; 0x324 <pcint2ActivateInterrupt+0x38>
     302:	8f 3f       	cpi	r24, 0xFF	; 255
     304:	d1 f7       	brne	.-12     	; 0x2fa <pcint2ActivateInterrupt+0xe>
     306:	80 91 6b 00 	lds	r24, 0x006B	; 0x80006b <__TEXT_REGION_LENGTH__+0x7e006b>
     30a:	84 60       	ori	r24, 0x04	; 4
     30c:	80 93 6b 00 	sts	0x006B, r24	; 0x80006b <__TEXT_REGION_LENGTH__+0x7e006b>
     310:	80 e0       	ldi	r24, 0x00	; 0
     312:	08 95       	ret
     314:	2a 98       	cbi	0x05, 2	; 5
     316:	22 9a       	sbi	0x04, 2	; 4
     318:	f6 cf       	rjmp	.-20     	; 0x306 <pcint2ActivateInterrupt+0x1a>
     31a:	2a 9a       	sbi	0x05, 2	; 5
     31c:	fc cf       	rjmp	.-8      	; 0x316 <pcint2ActivateInterrupt+0x2a>
     31e:	2a 98       	cbi	0x05, 2	; 5
     320:	22 98       	cbi	0x04, 2	; 4
     322:	f1 cf       	rjmp	.-30     	; 0x306 <pcint2ActivateInterrupt+0x1a>
     324:	2a 9a       	sbi	0x05, 2	; 5
     326:	fc cf       	rjmp	.-8      	; 0x320 <pcint2ActivateInterrupt+0x34>

00000328 <pcint2DeactivateInterrupt>:
     328:	eb e6       	ldi	r30, 0x6B	; 107
     32a:	f0 e0       	ldi	r31, 0x00	; 0
     32c:	80 81       	ld	r24, Z
     32e:	8b 7f       	andi	r24, 0xFB	; 251
     330:	80 83       	st	Z, r24
     332:	08 95       	ret

00000334 <pcint3ActivateInterrupt>:
     334:	82 30       	cpi	r24, 0x02	; 2
     336:	b9 f0       	breq	.+46     	; 0x366 <pcint3ActivateInterrupt+0x32>
     338:	30 f4       	brcc	.+12     	; 0x346 <pcint3ActivateInterrupt+0x12>
     33a:	88 23       	and	r24, r24
     33c:	79 f0       	breq	.+30     	; 0x35c <pcint3ActivateInterrupt+0x28>
     33e:	81 30       	cpi	r24, 0x01	; 1
     340:	81 f0       	breq	.+32     	; 0x362 <pcint3ActivateInterrupt+0x2e>
     342:	81 e0       	ldi	r24, 0x01	; 1
     344:	08 95       	ret
     346:	83 30       	cpi	r24, 0x03	; 3
     348:	89 f0       	breq	.+34     	; 0x36c <pcint3ActivateInterrupt+0x38>
     34a:	8f 3f       	cpi	r24, 0xFF	; 255
     34c:	d1 f7       	brne	.-12     	; 0x342 <pcint3ActivateInterrupt+0xe>
     34e:	80 91 6b 00 	lds	r24, 0x006B	; 0x80006b <__TEXT_REGION_LENGTH__+0x7e006b>
     352:	88 60       	ori	r24, 0x08	; 8
     354:	80 93 6b 00 	sts	0x006B, r24	; 0x80006b <__TEXT_REGION_LENGTH__+0x7e006b>
     358:	80 e0       	ldi	r24, 0x00	; 0
     35a:	08 95       	ret
     35c:	2b 98       	cbi	0x05, 3	; 5
     35e:	23 9a       	sbi	0x04, 3	; 4
     360:	f6 cf       	rjmp	.-20     	; 0x34e <pcint3ActivateInterrupt+0x1a>
     362:	2b 9a       	sbi	0x05, 3	; 5
     364:	fc cf       	rjmp	.-8      	; 0x35e <pcint3ActivateInterrupt+0x2a>
     366:	2b 98       	cbi	0x05, 3	; 5
     368:	23 98       	cbi	0x04, 3	; 4
     36a:	f1 cf       	rjmp	.-30     	; 0x34e <pcint3ActivateInterrupt+0x1a>
     36c:	2b 9a       	sbi	0x05, 3	; 5
     36e:	fc cf       	rjmp	.-8      	; 0x368 <pcint3ActivateInterrupt+0x34>

00000370 <pcint3DeactivateInterrupt>:
     370:	eb e6       	ldi	r30, 0x6B	; 107
     372:	f0 e0       	ldi	r31, 0x00	; 0
     374:	80 81       	ld	r24, Z
     376:	87 7f       	andi	r24, 0xF7	; 247
     378:	80 83       	st	Z, r24
     37a:	08 95       	ret

0000037c <pcint4ActivateInterrupt>:
     37c:	82 30       	cpi	r24, 0x02	; 2
     37e:	b9 f0       	breq	.+46     	; 0x3ae <pcint4ActivateInterrupt+0x32>
     380:	30 f4       	brcc	.+12     	; 0x38e <pcint4ActivateInterrupt+0x12>
     382:	88 23       	and	r24, r24
     384:	79 f0       	breq	.+30     	; 0x3a4 <pcint4ActivateInterrupt+0x28>
     386:	81 30       	cpi	r24, 0x01	; 1
     388:	81 f0       	breq	.+32     	; 0x3aa <pcint4ActivateInterrupt+0x2e>
     38a:	81 e0       	ldi	r24, 0x01	; 1
     38c:	08 95       	ret
     38e:	83 30       	cpi	r24, 0x03	; 3
     390:	89 f0       	breq	.+34     	; 0x3b4 <pcint4ActivateInterrupt+0x38>
     392:	8f 3f       	cpi	r24, 0xFF	; 255
     394:	d1 f7       	brne	.-12     	; 0x38a <pcint4ActivateInterrupt+0xe>
     396:	80 91 6b 00 	lds	r24, 0x006B	; 0x80006b <__TEXT_REGION_LENGTH__+0x7e006b>
     39a:	80 61       	ori	r24, 0x10	; 16
     39c:	80 93 6b 00 	sts	0x006B, r24	; 0x80006b <__TEXT_REGION_LENGTH__+0x7e006b>
     3a0:	80 e0       	ldi	r24, 0x00	; 0
     3a2:	08 95       	ret
     3a4:	2c 98       	cbi	0x05, 4	; 5
     3a6:	24 9a       	sbi	0x04, 4	; 4
     3a8:	f6 cf       	rjmp	.-20     	; 0x396 <pcint4ActivateInterrupt+0x1a>
     3aa:	2c 9a       	sbi	0x05, 4	; 5
     3ac:	fc cf       	rjmp	.-8      	; 0x3a6 <pcint4ActivateInterrupt+0x2a>
     3ae:	2c 98       	cbi	0x05, 4	; 5
     3b0:	24 98       	cbi	0x04, 4	; 4
     3b2:	f1 cf       	rjmp	.-30     	; 0x396 <pcint4ActivateInterrupt+0x1a>
     3b4:	2c 9a       	sbi	0x05, 4	; 5
     3b6:	fc cf       	rjmp	.-8      	; 0x3b0 <pcint4ActivateInterrupt+0x34>

000003b8 <pcint4DeactivateInterrupt>:
     3b8:	eb e6       	ldi	r30, 0x6B	; 107
     3ba:	f0 e0       	ldi	r31, 0x00	; 0
     3bc:	80 81       	ld	r24, Z
     3be:	8f 7e       	andi	r24, 0xEF	; 239
     3c0:	80 83       	st	Z, r24
     3c2:	08 95       	ret

000003c4 <pcint5ActivateInterrupt>:
     3c4:	82 30       	cpi	r24, 0x02	; 2
     3c6:	b9 f0       	breq	.+46     	; 0x3f6 <pcint5ActivateInterrupt+0x32>
     3c8:	30 f4       	brcc	.+12     	; 0x3d6 <pcint5ActivateInterrupt+0x12>
     3ca:	88 23       	and	r24, r24
     3cc:	79 f0       	breq	.+30     	; 0x3ec <pcint5ActivateInterrupt+0x28>
     3ce:	81 30       	cpi	r24, 0x01	; 1
     3d0:	81 f0       	breq	.+32     	; 0x3f2 <pcint5ActivateInterrupt+0x2e>
     3d2:	81 e0       	ldi	r24, 0x01	; 1
     3d4:	08 95       	ret
     3d6:	83 30       	cpi	r24, 0x03	; 3
     3d8:	89 f0       	breq	.+34     	; 0x3fc <pcint5ActivateInterrupt+0x38>
     3da:	8f 3f       	cpi	r24, 0xFF	; 255
     3dc:	d1 f7       	brne	.-12     	; 0x3d2 <pcint5ActivateInterrupt+0xe>
     3de:	80 91 6b 00 	lds	r24, 0x006B	; 0x80006b <__TEXT_REGION_LENGTH__+0x7e006b>
     3e2:	80 62       	ori	r24, 0x20	; 32
     3e4:	80 93 6b 00 	sts	0x006B, r24	; 0x80006b <__TEXT_REGION_LENGTH__+0x7e006b>
     3e8:	80 e0       	ldi	r24, 0x00	; 0
     3ea:	08 95       	ret
     3ec:	2d 98       	cbi	0x05, 5	; 5
     3ee:	25 9a       	sbi	0x04, 5	; 4
     3f0:	f6 cf       	rjmp	.-20     	; 0x3de <pcint5ActivateInterrupt+0x1a>
     3f2:	2d 9a       	sbi	0x05, 5	; 5
     3f4:	fc cf       	rjmp	.-8      	; 0x3ee <pcint5ActivateInterrupt+0x2a>
     3f6:	2d 98       	cbi	0x05, 5	; 5
     3f8:	25 98       	cbi	0x04, 5	; 4
     3fa:	f1 cf       	rjmp	.-30     	; 0x3de <pcint5ActivateInterrupt+0x1a>
     3fc:	2d 9a       	sbi	0x05, 5	; 5
     3fe:	fc cf       	rjmp	.-8      	; 0x3f8 <pcint5ActivateInterrupt+0x34>

00000400 <pcint5DeactivateInterrupt>:
     400:	eb e6       	ldi	r30, 0x6B	; 107
     402:	f0 e0       	ldi	r31, 0x00	; 0
     404:	80 81       	ld	r24, Z
     406:	8f 7d       	andi	r24, 0xDF	; 223
     408:	80 83       	st	Z, r24
     40a:	08 95       	ret

0000040c <pcint6ActivateInterrupt>:
     40c:	82 30       	cpi	r24, 0x02	; 2
     40e:	b9 f0       	breq	.+46     	; 0x43e <pcint6ActivateInterrupt+0x32>
     410:	30 f4       	brcc	.+12     	; 0x41e <pcint6ActivateInterrupt+0x12>
     412:	88 23       	and	r24, r24
     414:	79 f0       	breq	.+30     	; 0x434 <pcint6ActivateInterrupt+0x28>
     416:	81 30       	cpi	r24, 0x01	; 1
     418:	81 f0       	breq	.+32     	; 0x43a <pcint6ActivateInterrupt+0x2e>
     41a:	81 e0       	ldi	r24, 0x01	; 1
     41c:	08 95       	ret
     41e:	83 30       	cpi	r24, 0x03	; 3
     420:	89 f0       	breq	.+34     	; 0x444 <pcint6ActivateInterrupt+0x38>
     422:	8f 3f       	cpi	r24, 0xFF	; 255
     424:	d1 f7       	brne	.-12     	; 0x41a <pcint6ActivateInterrupt+0xe>
     426:	80 91 6b 00 	lds	r24, 0x006B	; 0x80006b <__TEXT_REGION_LENGTH__+0x7e006b>
     42a:	80 64       	ori	r24, 0x40	; 64
     42c:	80 93 6b 00 	sts	0x006B, r24	; 0x80006b <__TEXT_REGION_LENGTH__+0x7e006b>
     430:	80 e0       	ldi	r24, 0x00	; 0
     432:	08 95       	ret
     434:	2e 98       	cbi	0x05, 6	; 5
     436:	26 9a       	sbi	0x04, 6	; 4
     438:	f6 cf       	rjmp	.-20     	; 0x426 <pcint6ActivateInterrupt+0x1a>
     43a:	2e 9a       	sbi	0x05, 6	; 5
     43c:	fc cf       	rjmp	.-8      	; 0x436 <pcint6ActivateInterrupt+0x2a>
     43e:	2e 98       	cbi	0x05, 6	; 5
     440:	26 98       	cbi	0x04, 6	; 4
     442:	f1 cf       	rjmp	.-30     	; 0x426 <pcint6ActivateInterrupt+0x1a>
     444:	2e 9a       	sbi	0x05, 6	; 5
     446:	fc cf       	rjmp	.-8      	; 0x440 <pcint6ActivateInterrupt+0x34>

00000448 <pcint6DeactivateInterrupt>:
     448:	eb e6       	ldi	r30, 0x6B	; 107
     44a:	f0 e0       	ldi	r31, 0x00	; 0
     44c:	80 81       	ld	r24, Z
     44e:	8f 7b       	andi	r24, 0xBF	; 191
     450:	80 83       	st	Z, r24
     452:	08 95       	ret

00000454 <pcint7ActivateInterrupt>:
     454:	82 30       	cpi	r24, 0x02	; 2
     456:	b9 f0       	breq	.+46     	; 0x486 <pcint7ActivateInterrupt+0x32>
     458:	30 f4       	brcc	.+12     	; 0x466 <pcint7ActivateInterrupt+0x12>
     45a:	88 23       	and	r24, r24
     45c:	79 f0       	breq	.+30     	; 0x47c <pcint7ActivateInterrupt+0x28>
     45e:	81 30       	cpi	r24, 0x01	; 1
     460:	81 f0       	breq	.+32     	; 0x482 <pcint7ActivateInterrupt+0x2e>
     462:	81 e0       	ldi	r24, 0x01	; 1
     464:	08 95       	ret
     466:	83 30       	cpi	r24, 0x03	; 3
     468:	89 f0       	breq	.+34     	; 0x48c <pcint7ActivateInterrupt+0x38>
     46a:	8f 3f       	cpi	r24, 0xFF	; 255
     46c:	d1 f7       	brne	.-12     	; 0x462 <pcint7ActivateInterrupt+0xe>
     46e:	80 91 6b 00 	lds	r24, 0x006B	; 0x80006b <__TEXT_REGION_LENGTH__+0x7e006b>
     472:	80 68       	ori	r24, 0x80	; 128
     474:	80 93 6b 00 	sts	0x006B, r24	; 0x80006b <__TEXT_REGION_LENGTH__+0x7e006b>
     478:	80 e0       	ldi	r24, 0x00	; 0
     47a:	08 95       	ret
     47c:	2f 98       	cbi	0x05, 7	; 5
     47e:	27 9a       	sbi	0x04, 7	; 4
     480:	f6 cf       	rjmp	.-20     	; 0x46e <pcint7ActivateInterrupt+0x1a>
     482:	2f 9a       	sbi	0x05, 7	; 5
     484:	fc cf       	rjmp	.-8      	; 0x47e <pcint7ActivateInterrupt+0x2a>
     486:	2f 98       	cbi	0x05, 7	; 5
     488:	27 98       	cbi	0x04, 7	; 4
     48a:	f1 cf       	rjmp	.-30     	; 0x46e <pcint7ActivateInterrupt+0x1a>
     48c:	2f 9a       	sbi	0x05, 7	; 5
     48e:	fc cf       	rjmp	.-8      	; 0x488 <pcint7ActivateInterrupt+0x34>

00000490 <pcint7DeactivateInterrupt>:
     490:	eb e6       	ldi	r30, 0x6B	; 107
     492:	f0 e0       	ldi	r31, 0x00	; 0
     494:	80 81       	ld	r24, Z
     496:	8f 77       	andi	r24, 0x7F	; 127
     498:	80 83       	st	Z, r24
     49a:	08 95       	ret

0000049c <pcint14_8Enable>:
     49c:	e8 e6       	ldi	r30, 0x68	; 104
     49e:	f0 e0       	ldi	r31, 0x00	; 0
     4a0:	80 81       	ld	r24, Z
     4a2:	82 60       	ori	r24, 0x02	; 2
     4a4:	80 83       	st	Z, r24
     4a6:	08 95       	ret

000004a8 <pcint14_8Disable>:
     4a8:	e8 e6       	ldi	r30, 0x68	; 104
     4aa:	f0 e0       	ldi	r31, 0x00	; 0
     4ac:	80 81       	ld	r24, Z
     4ae:	8d 7f       	andi	r24, 0xFD	; 253
     4b0:	80 83       	st	Z, r24
     4b2:	08 95       	ret

000004b4 <pcint14_8ClearInterruptRequest>:
     4b4:	d9 9a       	sbi	0x1b, 1	; 27
     4b6:	08 95       	ret

000004b8 <pcint8ActivateInterrupt>:
     4b8:	82 30       	cpi	r24, 0x02	; 2
     4ba:	b9 f0       	breq	.+46     	; 0x4ea <pcint8ActivateInterrupt+0x32>
     4bc:	30 f4       	brcc	.+12     	; 0x4ca <pcint8ActivateInterrupt+0x12>
     4be:	88 23       	and	r24, r24
     4c0:	79 f0       	breq	.+30     	; 0x4e0 <pcint8ActivateInterrupt+0x28>
     4c2:	81 30       	cpi	r24, 0x01	; 1
     4c4:	81 f0       	breq	.+32     	; 0x4e6 <pcint8ActivateInterrupt+0x2e>
     4c6:	81 e0       	ldi	r24, 0x01	; 1
     4c8:	08 95       	ret
     4ca:	83 30       	cpi	r24, 0x03	; 3
     4cc:	89 f0       	breq	.+34     	; 0x4f0 <pcint8ActivateInterrupt+0x38>
     4ce:	8f 3f       	cpi	r24, 0xFF	; 255
     4d0:	d1 f7       	brne	.-12     	; 0x4c6 <pcint8ActivateInterrupt+0xe>
     4d2:	80 91 6c 00 	lds	r24, 0x006C	; 0x80006c <__TEXT_REGION_LENGTH__+0x7e006c>
     4d6:	81 60       	ori	r24, 0x01	; 1
     4d8:	80 93 6c 00 	sts	0x006C, r24	; 0x80006c <__TEXT_REGION_LENGTH__+0x7e006c>
     4dc:	80 e0       	ldi	r24, 0x00	; 0
     4de:	08 95       	ret
     4e0:	40 98       	cbi	0x08, 0	; 8
     4e2:	38 9a       	sbi	0x07, 0	; 7
     4e4:	f6 cf       	rjmp	.-20     	; 0x4d2 <pcint8ActivateInterrupt+0x1a>
     4e6:	40 9a       	sbi	0x08, 0	; 8
     4e8:	fc cf       	rjmp	.-8      	; 0x4e2 <pcint8ActivateInterrupt+0x2a>
     4ea:	40 98       	cbi	0x08, 0	; 8
     4ec:	38 98       	cbi	0x07, 0	; 7
     4ee:	f1 cf       	rjmp	.-30     	; 0x4d2 <pcint8ActivateInterrupt+0x1a>
     4f0:	40 9a       	sbi	0x08, 0	; 8
     4f2:	fc cf       	rjmp	.-8      	; 0x4ec <pcint8ActivateInterrupt+0x34>

000004f4 <pcint8DeactivateInterrupt>:
     4f4:	ec e6       	ldi	r30, 0x6C	; 108
     4f6:	f0 e0       	ldi	r31, 0x00	; 0
     4f8:	80 81       	ld	r24, Z
     4fa:	8e 7f       	andi	r24, 0xFE	; 254
     4fc:	80 83       	st	Z, r24
     4fe:	08 95       	ret

00000500 <pcint9ActivateInterrupt>:
     500:	82 30       	cpi	r24, 0x02	; 2
     502:	b9 f0       	breq	.+46     	; 0x532 <pcint9ActivateInterrupt+0x32>
     504:	30 f4       	brcc	.+12     	; 0x512 <pcint9ActivateInterrupt+0x12>
     506:	88 23       	and	r24, r24
     508:	79 f0       	breq	.+30     	; 0x528 <pcint9ActivateInterrupt+0x28>
     50a:	81 30       	cpi	r24, 0x01	; 1
     50c:	81 f0       	breq	.+32     	; 0x52e <pcint9ActivateInterrupt+0x2e>
     50e:	81 e0       	ldi	r24, 0x01	; 1
     510:	08 95       	ret
     512:	83 30       	cpi	r24, 0x03	; 3
     514:	89 f0       	breq	.+34     	; 0x538 <pcint9ActivateInterrupt+0x38>
     516:	8f 3f       	cpi	r24, 0xFF	; 255
     518:	d1 f7       	brne	.-12     	; 0x50e <pcint9ActivateInterrupt+0xe>
     51a:	80 91 6c 00 	lds	r24, 0x006C	; 0x80006c <__TEXT_REGION_LENGTH__+0x7e006c>
     51e:	82 60       	ori	r24, 0x02	; 2
     520:	80 93 6c 00 	sts	0x006C, r24	; 0x80006c <__TEXT_REGION_LENGTH__+0x7e006c>
     524:	80 e0       	ldi	r24, 0x00	; 0
     526:	08 95       	ret
     528:	41 98       	cbi	0x08, 1	; 8
     52a:	39 9a       	sbi	0x07, 1	; 7
     52c:	f6 cf       	rjmp	.-20     	; 0x51a <pcint9ActivateInterrupt+0x1a>
     52e:	41 9a       	sbi	0x08, 1	; 8
     530:	fc cf       	rjmp	.-8      	; 0x52a <pcint9ActivateInterrupt+0x2a>
     532:	41 98       	cbi	0x08, 1	; 8
     534:	39 98       	cbi	0x07, 1	; 7
     536:	f1 cf       	rjmp	.-30     	; 0x51a <pcint9ActivateInterrupt+0x1a>
     538:	41 9a       	sbi	0x08, 1	; 8
     53a:	fc cf       	rjmp	.-8      	; 0x534 <pcint9ActivateInterrupt+0x34>

0000053c <pcint9DeactivateInterrupt>:
     53c:	ec e6       	ldi	r30, 0x6C	; 108
     53e:	f0 e0       	ldi	r31, 0x00	; 0
     540:	80 81       	ld	r24, Z
     542:	8d 7f       	andi	r24, 0xFD	; 253
     544:	80 83       	st	Z, r24
     546:	08 95       	ret

00000548 <pcint10ActivateInterrupt>:
     548:	82 30       	cpi	r24, 0x02	; 2
     54a:	b9 f0       	breq	.+46     	; 0x57a <pcint10ActivateInterrupt+0x32>
     54c:	30 f4       	brcc	.+12     	; 0x55a <pcint10ActivateInterrupt+0x12>
     54e:	88 23       	and	r24, r24
     550:	79 f0       	breq	.+30     	; 0x570 <pcint10ActivateInterrupt+0x28>
     552:	81 30       	cpi	r24, 0x01	; 1
     554:	81 f0       	breq	.+32     	; 0x576 <pcint10ActivateInterrupt+0x2e>
     556:	81 e0       	ldi	r24, 0x01	; 1
     558:	08 95       	ret
     55a:	83 30       	cpi	r24, 0x03	; 3
     55c:	89 f0       	breq	.+34     	; 0x580 <pcint10ActivateInterrupt+0x38>
     55e:	8f 3f       	cpi	r24, 0xFF	; 255
     560:	d1 f7       	brne	.-12     	; 0x556 <pcint10ActivateInterrupt+0xe>
     562:	80 91 6c 00 	lds	r24, 0x006C	; 0x80006c <__TEXT_REGION_LENGTH__+0x7e006c>
     566:	84 60       	ori	r24, 0x04	; 4
     568:	80 93 6c 00 	sts	0x006C, r24	; 0x80006c <__TEXT_REGION_LENGTH__+0x7e006c>
     56c:	80 e0       	ldi	r24, 0x00	; 0
     56e:	08 95       	ret
     570:	42 98       	cbi	0x08, 2	; 8
     572:	3a 9a       	sbi	0x07, 2	; 7
     574:	f6 cf       	rjmp	.-20     	; 0x562 <pcint10ActivateInterrupt+0x1a>
     576:	42 9a       	sbi	0x08, 2	; 8
     578:	fc cf       	rjmp	.-8      	; 0x572 <pcint10ActivateInterrupt+0x2a>
     57a:	42 98       	cbi	0x08, 2	; 8
     57c:	3a 98       	cbi	0x07, 2	; 7
     57e:	f1 cf       	rjmp	.-30     	; 0x562 <pcint10ActivateInterrupt+0x1a>
     580:	42 9a       	sbi	0x08, 2	; 8
     582:	fc cf       	rjmp	.-8      	; 0x57c <pcint10ActivateInterrupt+0x34>

00000584 <pcint10DeactivateInterrupt>:
     584:	ec e6       	ldi	r30, 0x6C	; 108
     586:	f0 e0       	ldi	r31, 0x00	; 0
     588:	80 81       	ld	r24, Z
     58a:	8b 7f       	andi	r24, 0xFB	; 251
     58c:	80 83       	st	Z, r24
     58e:	08 95       	ret

00000590 <pcint11ActivateInterrupt>:
     590:	82 30       	cpi	r24, 0x02	; 2
     592:	b9 f0       	breq	.+46     	; 0x5c2 <pcint11ActivateInterrupt+0x32>
     594:	30 f4       	brcc	.+12     	; 0x5a2 <pcint11ActivateInterrupt+0x12>
     596:	88 23       	and	r24, r24
     598:	79 f0       	breq	.+30     	; 0x5b8 <pcint11ActivateInterrupt+0x28>
     59a:	81 30       	cpi	r24, 0x01	; 1
     59c:	81 f0       	breq	.+32     	; 0x5be <pcint11ActivateInterrupt+0x2e>
     59e:	81 e0       	ldi	r24, 0x01	; 1
     5a0:	08 95       	ret
     5a2:	83 30       	cpi	r24, 0x03	; 3
     5a4:	89 f0       	breq	.+34     	; 0x5c8 <pcint11ActivateInterrupt+0x38>
     5a6:	8f 3f       	cpi	r24, 0xFF	; 255
     5a8:	d1 f7       	brne	.-12     	; 0x59e <pcint11ActivateInterrupt+0xe>
     5aa:	80 91 6c 00 	lds	r24, 0x006C	; 0x80006c <__TEXT_REGION_LENGTH__+0x7e006c>
     5ae:	88 60       	ori	r24, 0x08	; 8
     5b0:	80 93 6c 00 	sts	0x006C, r24	; 0x80006c <__TEXT_REGION_LENGTH__+0x7e006c>
     5b4:	80 e0       	ldi	r24, 0x00	; 0
     5b6:	08 95       	ret
     5b8:	43 98       	cbi	0x08, 3	; 8
     5ba:	3b 9a       	sbi	0x07, 3	; 7
     5bc:	f6 cf       	rjmp	.-20     	; 0x5aa <pcint11ActivateInterrupt+0x1a>
     5be:	43 9a       	sbi	0x08, 3	; 8
     5c0:	fc cf       	rjmp	.-8      	; 0x5ba <pcint11ActivateInterrupt+0x2a>
     5c2:	43 98       	cbi	0x08, 3	; 8
     5c4:	3b 98       	cbi	0x07, 3	; 7
     5c6:	f1 cf       	rjmp	.-30     	; 0x5aa <pcint11ActivateInterrupt+0x1a>
     5c8:	43 9a       	sbi	0x08, 3	; 8
     5ca:	fc cf       	rjmp	.-8      	; 0x5c4 <pcint11ActivateInterrupt+0x34>

000005cc <pcint11DeactivateInterrupt>:
     5cc:	ec e6       	ldi	r30, 0x6C	; 108
     5ce:	f0 e0       	ldi	r31, 0x00	; 0
     5d0:	80 81       	ld	r24, Z
     5d2:	87 7f       	andi	r24, 0xF7	; 247
     5d4:	80 83       	st	Z, r24
     5d6:	08 95       	ret

000005d8 <pcint12ActivateInterrupt>:
     5d8:	82 30       	cpi	r24, 0x02	; 2
     5da:	b9 f0       	breq	.+46     	; 0x60a <pcint12ActivateInterrupt+0x32>
     5dc:	30 f4       	brcc	.+12     	; 0x5ea <pcint12ActivateInterrupt+0x12>
     5de:	88 23       	and	r24, r24
     5e0:	79 f0       	breq	.+30     	; 0x600 <pcint12ActivateInterrupt+0x28>
     5e2:	81 30       	cpi	r24, 0x01	; 1
     5e4:	81 f0       	breq	.+32     	; 0x606 <pcint12ActivateInterrupt+0x2e>
     5e6:	81 e0       	ldi	r24, 0x01	; 1
     5e8:	08 95       	ret
     5ea:	83 30       	cpi	r24, 0x03	; 3
     5ec:	89 f0       	breq	.+34     	; 0x610 <pcint12ActivateInterrupt+0x38>
     5ee:	8f 3f       	cpi	r24, 0xFF	; 255
     5f0:	d1 f7       	brne	.-12     	; 0x5e6 <pcint12ActivateInterrupt+0xe>
     5f2:	80 91 6c 00 	lds	r24, 0x006C	; 0x80006c <__TEXT_REGION_LENGTH__+0x7e006c>
     5f6:	80 61       	ori	r24, 0x10	; 16
     5f8:	80 93 6c 00 	sts	0x006C, r24	; 0x80006c <__TEXT_REGION_LENGTH__+0x7e006c>
     5fc:	80 e0       	ldi	r24, 0x00	; 0
     5fe:	08 95       	ret
     600:	44 98       	cbi	0x08, 4	; 8
     602:	3c 9a       	sbi	0x07, 4	; 7
     604:	f6 cf       	rjmp	.-20     	; 0x5f2 <pcint12ActivateInterrupt+0x1a>
     606:	44 9a       	sbi	0x08, 4	; 8
     608:	fc cf       	rjmp	.-8      	; 0x602 <pcint12ActivateInterrupt+0x2a>
     60a:	44 98       	cbi	0x08, 4	; 8
     60c:	3c 98       	cbi	0x07, 4	; 7
     60e:	f1 cf       	rjmp	.-30     	; 0x5f2 <pcint12ActivateInterrupt+0x1a>
     610:	44 9a       	sbi	0x08, 4	; 8
     612:	fc cf       	rjmp	.-8      	; 0x60c <pcint12ActivateInterrupt+0x34>

00000614 <pcint12DeactivateInterrupt>:
     614:	ec e6       	ldi	r30, 0x6C	; 108
     616:	f0 e0       	ldi	r31, 0x00	; 0
     618:	80 81       	ld	r24, Z
     61a:	8f 7e       	andi	r24, 0xEF	; 239
     61c:	80 83       	st	Z, r24
     61e:	08 95       	ret

00000620 <pcint13ActivateInterrupt>:
     620:	82 30       	cpi	r24, 0x02	; 2
     622:	b9 f0       	breq	.+46     	; 0x652 <pcint13ActivateInterrupt+0x32>
     624:	30 f4       	brcc	.+12     	; 0x632 <pcint13ActivateInterrupt+0x12>
     626:	88 23       	and	r24, r24
     628:	79 f0       	breq	.+30     	; 0x648 <pcint13ActivateInterrupt+0x28>
     62a:	81 30       	cpi	r24, 0x01	; 1
     62c:	81 f0       	breq	.+32     	; 0x64e <pcint13ActivateInterrupt+0x2e>
     62e:	81 e0       	ldi	r24, 0x01	; 1
     630:	08 95       	ret
     632:	83 30       	cpi	r24, 0x03	; 3
     634:	89 f0       	breq	.+34     	; 0x658 <pcint13ActivateInterrupt+0x38>
     636:	8f 3f       	cpi	r24, 0xFF	; 255
     638:	d1 f7       	brne	.-12     	; 0x62e <pcint13ActivateInterrupt+0xe>
     63a:	80 91 6c 00 	lds	r24, 0x006C	; 0x80006c <__TEXT_REGION_LENGTH__+0x7e006c>
     63e:	80 62       	ori	r24, 0x20	; 32
     640:	80 93 6c 00 	sts	0x006C, r24	; 0x80006c <__TEXT_REGION_LENGTH__+0x7e006c>
     644:	80 e0       	ldi	r24, 0x00	; 0
     646:	08 95       	ret
     648:	45 98       	cbi	0x08, 5	; 8
     64a:	3d 9a       	sbi	0x07, 5	; 7
     64c:	f6 cf       	rjmp	.-20     	; 0x63a <pcint13ActivateInterrupt+0x1a>
     64e:	45 9a       	sbi	0x08, 5	; 8
     650:	fc cf       	rjmp	.-8      	; 0x64a <pcint13ActivateInterrupt+0x2a>
     652:	45 98       	cbi	0x08, 5	; 8
     654:	3d 98       	cbi	0x07, 5	; 7
     656:	f1 cf       	rjmp	.-30     	; 0x63a <pcint13ActivateInterrupt+0x1a>
     658:	45 9a       	sbi	0x08, 5	; 8
     65a:	fc cf       	rjmp	.-8      	; 0x654 <pcint13ActivateInterrupt+0x34>

0000065c <pcint13DeactivateInterrupt>:
     65c:	ec e6       	ldi	r30, 0x6C	; 108
     65e:	f0 e0       	ldi	r31, 0x00	; 0
     660:	80 81       	ld	r24, Z
     662:	8f 7d       	andi	r24, 0xDF	; 223
     664:	80 83       	st	Z, r24
     666:	08 95       	ret

00000668 <pcint14ActivateInterrupt>:
     668:	82 30       	cpi	r24, 0x02	; 2
     66a:	b9 f0       	breq	.+46     	; 0x69a <pcint14ActivateInterrupt+0x32>
     66c:	30 f4       	brcc	.+12     	; 0x67a <pcint14ActivateInterrupt+0x12>
     66e:	88 23       	and	r24, r24
     670:	79 f0       	breq	.+30     	; 0x690 <pcint14ActivateInterrupt+0x28>
     672:	81 30       	cpi	r24, 0x01	; 1
     674:	81 f0       	breq	.+32     	; 0x696 <pcint14ActivateInterrupt+0x2e>
     676:	81 e0       	ldi	r24, 0x01	; 1
     678:	08 95       	ret
     67a:	83 30       	cpi	r24, 0x03	; 3
     67c:	89 f0       	breq	.+34     	; 0x6a0 <pcint14ActivateInterrupt+0x38>
     67e:	8f 3f       	cpi	r24, 0xFF	; 255
     680:	d1 f7       	brne	.-12     	; 0x676 <pcint14ActivateInterrupt+0xe>
     682:	80 91 6c 00 	lds	r24, 0x006C	; 0x80006c <__TEXT_REGION_LENGTH__+0x7e006c>
     686:	80 64       	ori	r24, 0x40	; 64
     688:	80 93 6c 00 	sts	0x006C, r24	; 0x80006c <__TEXT_REGION_LENGTH__+0x7e006c>
     68c:	80 e0       	ldi	r24, 0x00	; 0
     68e:	08 95       	ret
     690:	46 98       	cbi	0x08, 6	; 8
     692:	3e 9a       	sbi	0x07, 6	; 7
     694:	f6 cf       	rjmp	.-20     	; 0x682 <pcint14ActivateInterrupt+0x1a>
     696:	46 9a       	sbi	0x08, 6	; 8
     698:	fc cf       	rjmp	.-8      	; 0x692 <pcint14ActivateInterrupt+0x2a>
     69a:	46 98       	cbi	0x08, 6	; 8
     69c:	3e 98       	cbi	0x07, 6	; 7
     69e:	f1 cf       	rjmp	.-30     	; 0x682 <pcint14ActivateInterrupt+0x1a>
     6a0:	46 9a       	sbi	0x08, 6	; 8
     6a2:	fc cf       	rjmp	.-8      	; 0x69c <pcint14ActivateInterrupt+0x34>

000006a4 <pcint14DeactivateInterrupt>:
     6a4:	ec e6       	ldi	r30, 0x6C	; 108
     6a6:	f0 e0       	ldi	r31, 0x00	; 0
     6a8:	80 81       	ld	r24, Z
     6aa:	8f 7b       	andi	r24, 0xBF	; 191
     6ac:	80 83       	st	Z, r24
     6ae:	08 95       	ret

000006b0 <pcint23_16Enable>:
     6b0:	e8 e6       	ldi	r30, 0x68	; 104
     6b2:	f0 e0       	ldi	r31, 0x00	; 0
     6b4:	80 81       	ld	r24, Z
     6b6:	84 60       	ori	r24, 0x04	; 4
     6b8:	80 83       	st	Z, r24
     6ba:	08 95       	ret

000006bc <pcint23_16Disable>:
     6bc:	e8 e6       	ldi	r30, 0x68	; 104
     6be:	f0 e0       	ldi	r31, 0x00	; 0
     6c0:	80 81       	ld	r24, Z
     6c2:	8b 7f       	andi	r24, 0xFB	; 251
     6c4:	80 83       	st	Z, r24
     6c6:	08 95       	ret

000006c8 <pcint23_16ClearInterruptRequest>:
     6c8:	da 9a       	sbi	0x1b, 2	; 27
     6ca:	08 95       	ret

000006cc <pcint16ActivateInterrupt>:
     6cc:	82 30       	cpi	r24, 0x02	; 2
     6ce:	b9 f0       	breq	.+46     	; 0x6fe <pcint16ActivateInterrupt+0x32>
     6d0:	30 f4       	brcc	.+12     	; 0x6de <pcint16ActivateInterrupt+0x12>
     6d2:	88 23       	and	r24, r24
     6d4:	79 f0       	breq	.+30     	; 0x6f4 <pcint16ActivateInterrupt+0x28>
     6d6:	81 30       	cpi	r24, 0x01	; 1
     6d8:	81 f0       	breq	.+32     	; 0x6fa <pcint16ActivateInterrupt+0x2e>
     6da:	81 e0       	ldi	r24, 0x01	; 1
     6dc:	08 95       	ret
     6de:	83 30       	cpi	r24, 0x03	; 3
     6e0:	89 f0       	breq	.+34     	; 0x704 <pcint16ActivateInterrupt+0x38>
     6e2:	8f 3f       	cpi	r24, 0xFF	; 255
     6e4:	d1 f7       	brne	.-12     	; 0x6da <pcint16ActivateInterrupt+0xe>
     6e6:	80 91 6d 00 	lds	r24, 0x006D	; 0x80006d <__TEXT_REGION_LENGTH__+0x7e006d>
     6ea:	81 60       	ori	r24, 0x01	; 1
     6ec:	80 93 6d 00 	sts	0x006D, r24	; 0x80006d <__TEXT_REGION_LENGTH__+0x7e006d>
     6f0:	80 e0       	ldi	r24, 0x00	; 0
     6f2:	08 95       	ret
     6f4:	58 98       	cbi	0x0b, 0	; 11
     6f6:	50 9a       	sbi	0x0a, 0	; 10
     6f8:	f6 cf       	rjmp	.-20     	; 0x6e6 <pcint16ActivateInterrupt+0x1a>
     6fa:	58 9a       	sbi	0x0b, 0	; 11
     6fc:	fc cf       	rjmp	.-8      	; 0x6f6 <pcint16ActivateInterrupt+0x2a>
     6fe:	58 98       	cbi	0x0b, 0	; 11
     700:	50 98       	cbi	0x0a, 0	; 10
     702:	f1 cf       	rjmp	.-30     	; 0x6e6 <pcint16ActivateInterrupt+0x1a>
     704:	58 9a       	sbi	0x0b, 0	; 11
     706:	fc cf       	rjmp	.-8      	; 0x700 <pcint16ActivateInterrupt+0x34>

00000708 <pcint16DeactivateInterrupt>:
     708:	ed e6       	ldi	r30, 0x6D	; 109
     70a:	f0 e0       	ldi	r31, 0x00	; 0
     70c:	80 81       	ld	r24, Z
     70e:	8e 7f       	andi	r24, 0xFE	; 254
     710:	80 83       	st	Z, r24
     712:	08 95       	ret

00000714 <pcint17ActivateInterrupt>:
     714:	82 30       	cpi	r24, 0x02	; 2
     716:	b9 f0       	breq	.+46     	; 0x746 <pcint17ActivateInterrupt+0x32>
     718:	30 f4       	brcc	.+12     	; 0x726 <pcint17ActivateInterrupt+0x12>
     71a:	88 23       	and	r24, r24
     71c:	79 f0       	breq	.+30     	; 0x73c <pcint17ActivateInterrupt+0x28>
     71e:	81 30       	cpi	r24, 0x01	; 1
     720:	81 f0       	breq	.+32     	; 0x742 <pcint17ActivateInterrupt+0x2e>
     722:	81 e0       	ldi	r24, 0x01	; 1
     724:	08 95       	ret
     726:	83 30       	cpi	r24, 0x03	; 3
     728:	89 f0       	breq	.+34     	; 0x74c <pcint17ActivateInterrupt+0x38>
     72a:	8f 3f       	cpi	r24, 0xFF	; 255
     72c:	d1 f7       	brne	.-12     	; 0x722 <pcint17ActivateInterrupt+0xe>
     72e:	80 91 6d 00 	lds	r24, 0x006D	; 0x80006d <__TEXT_REGION_LENGTH__+0x7e006d>
     732:	82 60       	ori	r24, 0x02	; 2
     734:	80 93 6d 00 	sts	0x006D, r24	; 0x80006d <__TEXT_REGION_LENGTH__+0x7e006d>
     738:	80 e0       	ldi	r24, 0x00	; 0
     73a:	08 95       	ret
     73c:	59 98       	cbi	0x0b, 1	; 11
     73e:	51 9a       	sbi	0x0a, 1	; 10
     740:	f6 cf       	rjmp	.-20     	; 0x72e <pcint17ActivateInterrupt+0x1a>
     742:	59 9a       	sbi	0x0b, 1	; 11
     744:	fc cf       	rjmp	.-8      	; 0x73e <pcint17ActivateInterrupt+0x2a>
     746:	59 98       	cbi	0x0b, 1	; 11
     748:	51 98       	cbi	0x0a, 1	; 10
     74a:	f1 cf       	rjmp	.-30     	; 0x72e <pcint17ActivateInterrupt+0x1a>
     74c:	59 9a       	sbi	0x0b, 1	; 11
     74e:	fc cf       	rjmp	.-8      	; 0x748 <pcint17ActivateInterrupt+0x34>

00000750 <pcint17DeactivateInterrupt>:
     750:	ed e6       	ldi	r30, 0x6D	; 109
     752:	f0 e0       	ldi	r31, 0x00	; 0
     754:	80 81       	ld	r24, Z
     756:	8d 7f       	andi	r24, 0xFD	; 253
     758:	80 83       	st	Z, r24
     75a:	08 95       	ret

0000075c <pcint18ActivateInterrupt>:
     75c:	82 30       	cpi	r24, 0x02	; 2
     75e:	b9 f0       	breq	.+46     	; 0x78e <pcint18ActivateInterrupt+0x32>
     760:	30 f4       	brcc	.+12     	; 0x76e <pcint18ActivateInterrupt+0x12>
     762:	88 23       	and	r24, r24
     764:	79 f0       	breq	.+30     	; 0x784 <pcint18ActivateInterrupt+0x28>
     766:	81 30       	cpi	r24, 0x01	; 1
     768:	81 f0       	breq	.+32     	; 0x78a <pcint18ActivateInterrupt+0x2e>
     76a:	81 e0       	ldi	r24, 0x01	; 1
     76c:	08 95       	ret
     76e:	83 30       	cpi	r24, 0x03	; 3
     770:	89 f0       	breq	.+34     	; 0x794 <pcint18ActivateInterrupt+0x38>
     772:	8f 3f       	cpi	r24, 0xFF	; 255
     774:	d1 f7       	brne	.-12     	; 0x76a <pcint18ActivateInterrupt+0xe>
     776:	80 91 6d 00 	lds	r24, 0x006D	; 0x80006d <__TEXT_REGION_LENGTH__+0x7e006d>
     77a:	84 60       	ori	r24, 0x04	; 4
     77c:	80 93 6d 00 	sts	0x006D, r24	; 0x80006d <__TEXT_REGION_LENGTH__+0x7e006d>
     780:	80 e0       	ldi	r24, 0x00	; 0
     782:	08 95       	ret
     784:	5a 98       	cbi	0x0b, 2	; 11
     786:	52 9a       	sbi	0x0a, 2	; 10
     788:	f6 cf       	rjmp	.-20     	; 0x776 <pcint18ActivateInterrupt+0x1a>
     78a:	5a 9a       	sbi	0x0b, 2	; 11
     78c:	fc cf       	rjmp	.-8      	; 0x786 <pcint18ActivateInterrupt+0x2a>
     78e:	5a 98       	cbi	0x0b, 2	; 11
     790:	52 98       	cbi	0x0a, 2	; 10
     792:	f1 cf       	rjmp	.-30     	; 0x776 <pcint18ActivateInterrupt+0x1a>
     794:	5a 9a       	sbi	0x0b, 2	; 11
     796:	fc cf       	rjmp	.-8      	; 0x790 <pcint18ActivateInterrupt+0x34>

00000798 <pcint18DeactivateInterrupt>:
     798:	ed e6       	ldi	r30, 0x6D	; 109
     79a:	f0 e0       	ldi	r31, 0x00	; 0
     79c:	80 81       	ld	r24, Z
     79e:	8b 7f       	andi	r24, 0xFB	; 251
     7a0:	80 83       	st	Z, r24
     7a2:	08 95       	ret

000007a4 <pcint19ActivateInterrupt>:
     7a4:	82 30       	cpi	r24, 0x02	; 2
     7a6:	b9 f0       	breq	.+46     	; 0x7d6 <pcint19ActivateInterrupt+0x32>
     7a8:	30 f4       	brcc	.+12     	; 0x7b6 <pcint19ActivateInterrupt+0x12>
     7aa:	88 23       	and	r24, r24
     7ac:	79 f0       	breq	.+30     	; 0x7cc <pcint19ActivateInterrupt+0x28>
     7ae:	81 30       	cpi	r24, 0x01	; 1
     7b0:	81 f0       	breq	.+32     	; 0x7d2 <pcint19ActivateInterrupt+0x2e>
     7b2:	81 e0       	ldi	r24, 0x01	; 1
     7b4:	08 95       	ret
     7b6:	83 30       	cpi	r24, 0x03	; 3
     7b8:	89 f0       	breq	.+34     	; 0x7dc <pcint19ActivateInterrupt+0x38>
     7ba:	8f 3f       	cpi	r24, 0xFF	; 255
     7bc:	d1 f7       	brne	.-12     	; 0x7b2 <pcint19ActivateInterrupt+0xe>
     7be:	80 91 6d 00 	lds	r24, 0x006D	; 0x80006d <__TEXT_REGION_LENGTH__+0x7e006d>
     7c2:	88 60       	ori	r24, 0x08	; 8
     7c4:	80 93 6d 00 	sts	0x006D, r24	; 0x80006d <__TEXT_REGION_LENGTH__+0x7e006d>
     7c8:	80 e0       	ldi	r24, 0x00	; 0
     7ca:	08 95       	ret
     7cc:	5b 98       	cbi	0x0b, 3	; 11
     7ce:	53 9a       	sbi	0x0a, 3	; 10
     7d0:	f6 cf       	rjmp	.-20     	; 0x7be <pcint19ActivateInterrupt+0x1a>
     7d2:	5b 9a       	sbi	0x0b, 3	; 11
     7d4:	fc cf       	rjmp	.-8      	; 0x7ce <pcint19ActivateInterrupt+0x2a>
     7d6:	5b 98       	cbi	0x0b, 3	; 11
     7d8:	53 98       	cbi	0x0a, 3	; 10
     7da:	f1 cf       	rjmp	.-30     	; 0x7be <pcint19ActivateInterrupt+0x1a>
     7dc:	5b 9a       	sbi	0x0b, 3	; 11
     7de:	fc cf       	rjmp	.-8      	; 0x7d8 <pcint19ActivateInterrupt+0x34>

000007e0 <pcint19DeactivateInterrupt>:
     7e0:	ed e6       	ldi	r30, 0x6D	; 109
     7e2:	f0 e0       	ldi	r31, 0x00	; 0
     7e4:	80 81       	ld	r24, Z
     7e6:	87 7f       	andi	r24, 0xF7	; 247
     7e8:	80 83       	st	Z, r24
     7ea:	08 95       	ret

000007ec <pcint20ActivateInterrupt>:
     7ec:	82 30       	cpi	r24, 0x02	; 2
     7ee:	b9 f0       	breq	.+46     	; 0x81e <pcint20ActivateInterrupt+0x32>
     7f0:	30 f4       	brcc	.+12     	; 0x7fe <pcint20ActivateInterrupt+0x12>
     7f2:	88 23       	and	r24, r24
     7f4:	79 f0       	breq	.+30     	; 0x814 <pcint20ActivateInterrupt+0x28>
     7f6:	81 30       	cpi	r24, 0x01	; 1
     7f8:	81 f0       	breq	.+32     	; 0x81a <pcint20ActivateInterrupt+0x2e>
     7fa:	81 e0       	ldi	r24, 0x01	; 1
     7fc:	08 95       	ret
     7fe:	83 30       	cpi	r24, 0x03	; 3
     800:	89 f0       	breq	.+34     	; 0x824 <pcint20ActivateInterrupt+0x38>
     802:	8f 3f       	cpi	r24, 0xFF	; 255
     804:	d1 f7       	brne	.-12     	; 0x7fa <pcint20ActivateInterrupt+0xe>
     806:	80 91 6d 00 	lds	r24, 0x006D	; 0x80006d <__TEXT_REGION_LENGTH__+0x7e006d>
     80a:	80 61       	ori	r24, 0x10	; 16
     80c:	80 93 6d 00 	sts	0x006D, r24	; 0x80006d <__TEXT_REGION_LENGTH__+0x7e006d>
     810:	80 e0       	ldi	r24, 0x00	; 0
     812:	08 95       	ret
     814:	5c 98       	cbi	0x0b, 4	; 11
     816:	54 9a       	sbi	0x0a, 4	; 10
     818:	f6 cf       	rjmp	.-20     	; 0x806 <pcint20ActivateInterrupt+0x1a>
     81a:	5c 9a       	sbi	0x0b, 4	; 11
     81c:	fc cf       	rjmp	.-8      	; 0x816 <pcint20ActivateInterrupt+0x2a>
     81e:	5c 98       	cbi	0x0b, 4	; 11
     820:	54 98       	cbi	0x0a, 4	; 10
     822:	f1 cf       	rjmp	.-30     	; 0x806 <pcint20ActivateInterrupt+0x1a>
     824:	5c 9a       	sbi	0x0b, 4	; 11
     826:	fc cf       	rjmp	.-8      	; 0x820 <pcint20ActivateInterrupt+0x34>

00000828 <pcint20DeactivateInterrupt>:
     828:	ed e6       	ldi	r30, 0x6D	; 109
     82a:	f0 e0       	ldi	r31, 0x00	; 0
     82c:	80 81       	ld	r24, Z
     82e:	8f 7e       	andi	r24, 0xEF	; 239
     830:	80 83       	st	Z, r24
     832:	08 95       	ret

00000834 <pcint21ActivateInterrupt>:
     834:	82 30       	cpi	r24, 0x02	; 2
     836:	b9 f0       	breq	.+46     	; 0x866 <pcint21ActivateInterrupt+0x32>
     838:	30 f4       	brcc	.+12     	; 0x846 <pcint21ActivateInterrupt+0x12>
     83a:	88 23       	and	r24, r24
     83c:	79 f0       	breq	.+30     	; 0x85c <pcint21ActivateInterrupt+0x28>
     83e:	81 30       	cpi	r24, 0x01	; 1
     840:	81 f0       	breq	.+32     	; 0x862 <pcint21ActivateInterrupt+0x2e>
     842:	81 e0       	ldi	r24, 0x01	; 1
     844:	08 95       	ret
     846:	83 30       	cpi	r24, 0x03	; 3
     848:	89 f0       	breq	.+34     	; 0x86c <pcint21ActivateInterrupt+0x38>
     84a:	8f 3f       	cpi	r24, 0xFF	; 255
     84c:	d1 f7       	brne	.-12     	; 0x842 <pcint21ActivateInterrupt+0xe>
     84e:	80 91 6d 00 	lds	r24, 0x006D	; 0x80006d <__TEXT_REGION_LENGTH__+0x7e006d>
     852:	80 62       	ori	r24, 0x20	; 32
     854:	80 93 6d 00 	sts	0x006D, r24	; 0x80006d <__TEXT_REGION_LENGTH__+0x7e006d>
     858:	80 e0       	ldi	r24, 0x00	; 0
     85a:	08 95       	ret
     85c:	5d 98       	cbi	0x0b, 5	; 11
     85e:	55 9a       	sbi	0x0a, 5	; 10
     860:	f6 cf       	rjmp	.-20     	; 0x84e <pcint21ActivateInterrupt+0x1a>
     862:	5d 9a       	sbi	0x0b, 5	; 11
     864:	fc cf       	rjmp	.-8      	; 0x85e <pcint21ActivateInterrupt+0x2a>
     866:	5d 98       	cbi	0x0b, 5	; 11
     868:	55 98       	cbi	0x0a, 5	; 10
     86a:	f1 cf       	rjmp	.-30     	; 0x84e <pcint21ActivateInterrupt+0x1a>
     86c:	5d 9a       	sbi	0x0b, 5	; 11
     86e:	fc cf       	rjmp	.-8      	; 0x868 <pcint21ActivateInterrupt+0x34>

00000870 <pcint21DeactivateInterrupt>:
     870:	ed e6       	ldi	r30, 0x6D	; 109
     872:	f0 e0       	ldi	r31, 0x00	; 0
     874:	80 81       	ld	r24, Z
     876:	8f 7d       	andi	r24, 0xDF	; 223
     878:	80 83       	st	Z, r24
     87a:	08 95       	ret

0000087c <pcint22ActivateInterrupt>:
     87c:	82 30       	cpi	r24, 0x02	; 2
     87e:	b9 f0       	breq	.+46     	; 0x8ae <pcint22ActivateInterrupt+0x32>
     880:	30 f4       	brcc	.+12     	; 0x88e <pcint22ActivateInterrupt+0x12>
     882:	88 23       	and	r24, r24
     884:	79 f0       	breq	.+30     	; 0x8a4 <pcint22ActivateInterrupt+0x28>
     886:	81 30       	cpi	r24, 0x01	; 1
     888:	81 f0       	breq	.+32     	; 0x8aa <pcint22ActivateInterrupt+0x2e>
     88a:	81 e0       	ldi	r24, 0x01	; 1
     88c:	08 95       	ret
     88e:	83 30       	cpi	r24, 0x03	; 3
     890:	89 f0       	breq	.+34     	; 0x8b4 <pcint22ActivateInterrupt+0x38>
     892:	8f 3f       	cpi	r24, 0xFF	; 255
     894:	d1 f7       	brne	.-12     	; 0x88a <pcint22ActivateInterrupt+0xe>
     896:	80 91 6d 00 	lds	r24, 0x006D	; 0x80006d <__TEXT_REGION_LENGTH__+0x7e006d>
     89a:	80 64       	ori	r24, 0x40	; 64
     89c:	80 93 6d 00 	sts	0x006D, r24	; 0x80006d <__TEXT_REGION_LENGTH__+0x7e006d>
     8a0:	80 e0       	ldi	r24, 0x00	; 0
     8a2:	08 95       	ret
     8a4:	5e 98       	cbi	0x0b, 6	; 11
     8a6:	56 9a       	sbi	0x0a, 6	; 10
     8a8:	f6 cf       	rjmp	.-20     	; 0x896 <pcint22ActivateInterrupt+0x1a>
     8aa:	5e 9a       	sbi	0x0b, 6	; 11
     8ac:	fc cf       	rjmp	.-8      	; 0x8a6 <pcint22ActivateInterrupt+0x2a>
     8ae:	5e 98       	cbi	0x0b, 6	; 11
     8b0:	56 98       	cbi	0x0a, 6	; 10
     8b2:	f1 cf       	rjmp	.-30     	; 0x896 <pcint22ActivateInterrupt+0x1a>
     8b4:	5e 9a       	sbi	0x0b, 6	; 11
     8b6:	fc cf       	rjmp	.-8      	; 0x8b0 <pcint22ActivateInterrupt+0x34>

000008b8 <pcint22DeactivateInterrupt>:
     8b8:	ed e6       	ldi	r30, 0x6D	; 109
     8ba:	f0 e0       	ldi	r31, 0x00	; 0
     8bc:	80 81       	ld	r24, Z
     8be:	8f 7b       	andi	r24, 0xBF	; 191
     8c0:	80 83       	st	Z, r24
     8c2:	08 95       	ret

000008c4 <pcint23ActivateInterrupt>:
     8c4:	82 30       	cpi	r24, 0x02	; 2
     8c6:	b9 f0       	breq	.+46     	; 0x8f6 <pcint23ActivateInterrupt+0x32>
     8c8:	30 f4       	brcc	.+12     	; 0x8d6 <pcint23ActivateInterrupt+0x12>
     8ca:	88 23       	and	r24, r24
     8cc:	79 f0       	breq	.+30     	; 0x8ec <pcint23ActivateInterrupt+0x28>
     8ce:	81 30       	cpi	r24, 0x01	; 1
     8d0:	81 f0       	breq	.+32     	; 0x8f2 <pcint23ActivateInterrupt+0x2e>
     8d2:	81 e0       	ldi	r24, 0x01	; 1
     8d4:	08 95       	ret
     8d6:	83 30       	cpi	r24, 0x03	; 3
     8d8:	89 f0       	breq	.+34     	; 0x8fc <pcint23ActivateInterrupt+0x38>
     8da:	8f 3f       	cpi	r24, 0xFF	; 255
     8dc:	d1 f7       	brne	.-12     	; 0x8d2 <pcint23ActivateInterrupt+0xe>
     8de:	80 91 6d 00 	lds	r24, 0x006D	; 0x80006d <__TEXT_REGION_LENGTH__+0x7e006d>
     8e2:	80 68       	ori	r24, 0x80	; 128
     8e4:	80 93 6d 00 	sts	0x006D, r24	; 0x80006d <__TEXT_REGION_LENGTH__+0x7e006d>
     8e8:	80 e0       	ldi	r24, 0x00	; 0
     8ea:	08 95       	ret
     8ec:	5f 98       	cbi	0x0b, 7	; 11
     8ee:	57 9a       	sbi	0x0a, 7	; 10
     8f0:	f6 cf       	rjmp	.-20     	; 0x8de <pcint23ActivateInterrupt+0x1a>
     8f2:	5f 9a       	sbi	0x0b, 7	; 11
     8f4:	fc cf       	rjmp	.-8      	; 0x8ee <pcint23ActivateInterrupt+0x2a>
     8f6:	5f 98       	cbi	0x0b, 7	; 11
     8f8:	57 98       	cbi	0x0a, 7	; 10
     8fa:	f1 cf       	rjmp	.-30     	; 0x8de <pcint23ActivateInterrupt+0x1a>
     8fc:	5f 9a       	sbi	0x0b, 7	; 11
     8fe:	fc cf       	rjmp	.-8      	; 0x8f8 <pcint23ActivateInterrupt+0x34>

00000900 <pcint23DeactivateInterrupt>:
     900:	ed e6       	ldi	r30, 0x6D	; 109
     902:	f0 e0       	ldi	r31, 0x00	; 0
     904:	80 81       	ld	r24, Z
     906:	8f 77       	andi	r24, 0x7F	; 127
     908:	80 83       	st	Z, r24
     90a:	08 95       	ret

0000090c <timer0Config>:
     90c:	24 b5       	in	r18, 0x24	; 36
     90e:	95 b5       	in	r25, 0x25	; 37
     910:	6f 3f       	cpi	r22, 0xFF	; 255
     912:	a9 f0       	breq	.+42     	; 0x93e <timer0Config+0x32>
     914:	98 7f       	andi	r25, 0xF8	; 248
     916:	46 2f       	mov	r20, r22
     918:	50 e0       	ldi	r21, 0x00	; 0
     91a:	48 30       	cpi	r20, 0x08	; 8
     91c:	51 05       	cpc	r21, r1
     91e:	08 f0       	brcs	.+2      	; 0x922 <timer0Config+0x16>
     920:	39 c0       	rjmp	.+114    	; 0x994 <timer0Config+0x88>
     922:	fa 01       	movw	r30, r20
     924:	ea 56       	subi	r30, 0x6A	; 106
     926:	fb 4f       	sbci	r31, 0xFB	; 251
     928:	0c 94 1b 0e 	jmp	0x1c36	; 0x1c36 <__tablejump2__>
     92c:	9f 04       	cpc	r9, r15
     92e:	9e 04       	cpc	r9, r14
     930:	ac 04       	cpc	r10, r12
     932:	ae 04       	cpc	r10, r14
     934:	b0 04       	cpc	r11, r0
     936:	b2 04       	cpc	r11, r2
     938:	b4 04       	cpc	r11, r4
     93a:	b6 04       	cpc	r11, r6
     93c:	91 60       	ori	r25, 0x01	; 1
     93e:	8f 3f       	cpi	r24, 0xFF	; 255
     940:	01 f1       	breq	.+64     	; 0x982 <timer0Config+0x76>
     942:	2c 7f       	andi	r18, 0xFC	; 252
     944:	97 7f       	andi	r25, 0xF7	; 247
     946:	82 30       	cpi	r24, 0x02	; 2
     948:	d9 f0       	breq	.+54     	; 0x980 <timer0Config+0x74>
     94a:	90 f4       	brcc	.+36     	; 0x970 <timer0Config+0x64>
     94c:	88 23       	and	r24, r24
     94e:	c9 f0       	breq	.+50     	; 0x982 <timer0Config+0x76>
     950:	81 30       	cpi	r24, 0x01	; 1
     952:	e1 f0       	breq	.+56     	; 0x98c <timer0Config+0x80>
     954:	84 e0       	ldi	r24, 0x04	; 4
     956:	08 95       	ret
     958:	92 60       	ori	r25, 0x02	; 2
     95a:	f1 cf       	rjmp	.-30     	; 0x93e <timer0Config+0x32>
     95c:	93 60       	ori	r25, 0x03	; 3
     95e:	ef cf       	rjmp	.-34     	; 0x93e <timer0Config+0x32>
     960:	94 60       	ori	r25, 0x04	; 4
     962:	ed cf       	rjmp	.-38     	; 0x93e <timer0Config+0x32>
     964:	95 60       	ori	r25, 0x05	; 5
     966:	eb cf       	rjmp	.-42     	; 0x93e <timer0Config+0x32>
     968:	96 60       	ori	r25, 0x06	; 6
     96a:	e9 cf       	rjmp	.-46     	; 0x93e <timer0Config+0x32>
     96c:	97 60       	ori	r25, 0x07	; 7
     96e:	e7 cf       	rjmp	.-50     	; 0x93e <timer0Config+0x32>
     970:	85 30       	cpi	r24, 0x05	; 5
     972:	59 f0       	breq	.+22     	; 0x98a <timer0Config+0x7e>
     974:	87 30       	cpi	r24, 0x07	; 7
     976:	61 f0       	breq	.+24     	; 0x990 <timer0Config+0x84>
     978:	83 30       	cpi	r24, 0x03	; 3
     97a:	61 f7       	brne	.-40     	; 0x954 <timer0Config+0x48>
     97c:	23 60       	ori	r18, 0x03	; 3
     97e:	01 c0       	rjmp	.+2      	; 0x982 <timer0Config+0x76>
     980:	22 60       	ori	r18, 0x02	; 2
     982:	24 bd       	out	0x24, r18	; 36
     984:	95 bd       	out	0x25, r25	; 37
     986:	80 e0       	ldi	r24, 0x00	; 0
     988:	08 95       	ret
     98a:	98 60       	ori	r25, 0x08	; 8
     98c:	21 60       	ori	r18, 0x01	; 1
     98e:	f9 cf       	rjmp	.-14     	; 0x982 <timer0Config+0x76>
     990:	98 60       	ori	r25, 0x08	; 8
     992:	f4 cf       	rjmp	.-24     	; 0x97c <timer0Config+0x70>
     994:	83 e0       	ldi	r24, 0x03	; 3
     996:	08 95       	ret

00000998 <timer0OutputConfig>:
     998:	94 b5       	in	r25, 0x24	; 36
     99a:	8f 3f       	cpi	r24, 0xFF	; 255
     99c:	e9 f0       	breq	.+58     	; 0x9d8 <timer0OutputConfig+0x40>
     99e:	29 2f       	mov	r18, r25
     9a0:	2f 73       	andi	r18, 0x3F	; 63
     9a2:	81 30       	cpi	r24, 0x01	; 1
     9a4:	39 f0       	breq	.+14     	; 0x9b4 <timer0OutputConfig+0x1c>
     9a6:	b8 f0       	brcs	.+46     	; 0x9d6 <timer0OutputConfig+0x3e>
     9a8:	82 30       	cpi	r24, 0x02	; 2
     9aa:	59 f0       	breq	.+22     	; 0x9c2 <timer0OutputConfig+0x2a>
     9ac:	83 30       	cpi	r24, 0x03	; 3
     9ae:	71 f0       	breq	.+28     	; 0x9cc <timer0OutputConfig+0x34>
     9b0:	81 e0       	ldi	r24, 0x01	; 1
     9b2:	08 95       	ret
     9b4:	6f 3f       	cpi	r22, 0xFF	; 255
     9b6:	09 f5       	brne	.+66     	; 0x9fa <timer0OutputConfig+0x62>
     9b8:	92 2f       	mov	r25, r18
     9ba:	90 64       	ori	r25, 0x40	; 64
     9bc:	94 bd       	out	0x24, r25	; 36
     9be:	80 e0       	ldi	r24, 0x00	; 0
     9c0:	08 95       	ret
     9c2:	6f 3f       	cpi	r22, 0xFF	; 255
     9c4:	e9 f4       	brne	.+58     	; 0xa00 <timer0OutputConfig+0x68>
     9c6:	92 2f       	mov	r25, r18
     9c8:	90 68       	ori	r25, 0x80	; 128
     9ca:	f8 cf       	rjmp	.-16     	; 0x9bc <timer0OutputConfig+0x24>
     9cc:	6f 3f       	cpi	r22, 0xFF	; 255
     9ce:	e1 f4       	brne	.+56     	; 0xa08 <timer0OutputConfig+0x70>
     9d0:	92 2f       	mov	r25, r18
     9d2:	90 6c       	ori	r25, 0xC0	; 192
     9d4:	f3 cf       	rjmp	.-26     	; 0x9bc <timer0OutputConfig+0x24>
     9d6:	92 2f       	mov	r25, r18
     9d8:	6f 3f       	cpi	r22, 0xFF	; 255
     9da:	81 f3       	breq	.-32     	; 0x9bc <timer0OutputConfig+0x24>
     9dc:	9f 7c       	andi	r25, 0xCF	; 207
     9de:	82 30       	cpi	r24, 0x02	; 2
     9e0:	89 f0       	breq	.+34     	; 0xa04 <timer0OutputConfig+0x6c>
     9e2:	30 f4       	brcc	.+12     	; 0x9f0 <timer0OutputConfig+0x58>
     9e4:	88 23       	and	r24, r24
     9e6:	51 f3       	breq	.-44     	; 0x9bc <timer0OutputConfig+0x24>
     9e8:	81 30       	cpi	r24, 0x01	; 1
     9ea:	11 f7       	brne	.-60     	; 0x9b0 <timer0OutputConfig+0x18>
     9ec:	90 61       	ori	r25, 0x10	; 16
     9ee:	e6 cf       	rjmp	.-52     	; 0x9bc <timer0OutputConfig+0x24>
     9f0:	83 30       	cpi	r24, 0x03	; 3
     9f2:	61 f0       	breq	.+24     	; 0xa0c <timer0OutputConfig+0x74>
     9f4:	8f 3f       	cpi	r24, 0xFF	; 255
     9f6:	11 f3       	breq	.-60     	; 0x9bc <timer0OutputConfig+0x24>
     9f8:	db cf       	rjmp	.-74     	; 0x9b0 <timer0OutputConfig+0x18>
     9fa:	9f 70       	andi	r25, 0x0F	; 15
     9fc:	90 64       	ori	r25, 0x40	; 64
     9fe:	f6 cf       	rjmp	.-20     	; 0x9ec <timer0OutputConfig+0x54>
     a00:	9f 70       	andi	r25, 0x0F	; 15
     a02:	90 68       	ori	r25, 0x80	; 128
     a04:	90 62       	ori	r25, 0x20	; 32
     a06:	da cf       	rjmp	.-76     	; 0x9bc <timer0OutputConfig+0x24>
     a08:	9f 70       	andi	r25, 0x0F	; 15
     a0a:	90 6c       	ori	r25, 0xC0	; 192
     a0c:	90 63       	ori	r25, 0x30	; 48
     a0e:	d6 cf       	rjmp	.-84     	; 0x9bc <timer0OutputConfig+0x24>

00000a10 <timer0ActivateOverflowInterrupt>:
     a10:	ee e6       	ldi	r30, 0x6E	; 110
     a12:	f0 e0       	ldi	r31, 0x00	; 0
     a14:	80 81       	ld	r24, Z
     a16:	81 60       	ori	r24, 0x01	; 1
     a18:	80 83       	st	Z, r24
     a1a:	08 95       	ret

00000a1c <timer0DeactivateOverflowInterrupt>:
     a1c:	ee e6       	ldi	r30, 0x6E	; 110
     a1e:	f0 e0       	ldi	r31, 0x00	; 0
     a20:	80 81       	ld	r24, Z
     a22:	8e 7f       	andi	r24, 0xFE	; 254
     a24:	80 83       	st	Z, r24
     a26:	08 95       	ret

00000a28 <timer0ClearOverflowInterruptRequest>:
     a28:	a8 9a       	sbi	0x15, 0	; 21
     a2a:	08 95       	ret

00000a2c <timer0ActivateCompareAInterrupt>:
     a2c:	ee e6       	ldi	r30, 0x6E	; 110
     a2e:	f0 e0       	ldi	r31, 0x00	; 0
     a30:	80 81       	ld	r24, Z
     a32:	82 60       	ori	r24, 0x02	; 2
     a34:	80 83       	st	Z, r24
     a36:	08 95       	ret

00000a38 <timer0DeactivateCompareAInterrupt>:
     a38:	ee e6       	ldi	r30, 0x6E	; 110
     a3a:	f0 e0       	ldi	r31, 0x00	; 0
     a3c:	80 81       	ld	r24, Z
     a3e:	8d 7f       	andi	r24, 0xFD	; 253
     a40:	80 83       	st	Z, r24
     a42:	08 95       	ret

00000a44 <timer0ClearCompareAInterruptRequest>:
     a44:	a9 9a       	sbi	0x15, 1	; 21
     a46:	08 95       	ret

00000a48 <timer0ActivateCompareBInterrupt>:
     a48:	ee e6       	ldi	r30, 0x6E	; 110
     a4a:	f0 e0       	ldi	r31, 0x00	; 0
     a4c:	80 81       	ld	r24, Z
     a4e:	84 60       	ori	r24, 0x04	; 4
     a50:	80 83       	st	Z, r24
     a52:	08 95       	ret

00000a54 <timer0DeactivateCompareBInterrupt>:
     a54:	ee e6       	ldi	r30, 0x6E	; 110
     a56:	f0 e0       	ldi	r31, 0x00	; 0
     a58:	80 81       	ld	r24, Z
     a5a:	8b 7f       	andi	r24, 0xFB	; 251
     a5c:	80 83       	st	Z, r24
     a5e:	08 95       	ret

00000a60 <timer0ClearCompareBInterruptRequest>:
     a60:	aa 9a       	sbi	0x15, 2	; 21
     a62:	08 95       	ret

00000a64 <timer0ForceCompareA>:
     a64:	85 b5       	in	r24, 0x25	; 37
     a66:	80 68       	ori	r24, 0x80	; 128
     a68:	85 bd       	out	0x25, r24	; 37
     a6a:	08 95       	ret

00000a6c <timer0ForceCompareB>:
     a6c:	85 b5       	in	r24, 0x25	; 37
     a6e:	80 64       	ori	r24, 0x40	; 64
     a70:	85 bd       	out	0x25, r24	; 37
     a72:	08 95       	ret

00000a74 <timer0SetCounterValue>:
     a74:	86 bd       	out	0x26, r24	; 38
     a76:	08 95       	ret

00000a78 <timer0GetCounterValue>:
     a78:	86 b5       	in	r24, 0x26	; 38
     a7a:	08 95       	ret

00000a7c <timer0SetCompareAValue>:
     a7c:	87 bd       	out	0x27, r24	; 39
     a7e:	08 95       	ret

00000a80 <timer0GetCompareAValue>:
     a80:	87 b5       	in	r24, 0x27	; 39
     a82:	08 95       	ret

00000a84 <timer0SetCompareBValue>:
     a84:	88 bd       	out	0x28, r24	; 40
     a86:	08 95       	ret

00000a88 <timer0GetCompareBValue>:
     a88:	88 b5       	in	r24, 0x28	; 40
     a8a:	08 95       	ret

00000a8c <timer1Config>:
     a8c:	20 91 80 00 	lds	r18, 0x0080	; 0x800080 <__TEXT_REGION_LENGTH__+0x7e0080>
     a90:	90 91 81 00 	lds	r25, 0x0081	; 0x800081 <__TEXT_REGION_LENGTH__+0x7e0081>
     a94:	6f 3f       	cpi	r22, 0xFF	; 255
     a96:	11 f0       	breq	.+4      	; 0xa9c <timer1Config+0x10>
     a98:	98 7f       	andi	r25, 0xF8	; 248
     a9a:	96 2b       	or	r25, r22
     a9c:	8f 3f       	cpi	r24, 0xFF	; 255
     a9e:	49 f0       	breq	.+18     	; 0xab2 <timer1Config+0x26>
     aa0:	83 ff       	sbrs	r24, 3
     aa2:	0d c0       	rjmp	.+26     	; 0xabe <timer1Config+0x32>
     aa4:	90 61       	ori	r25, 0x10	; 16
     aa6:	82 ff       	sbrs	r24, 2
     aa8:	0c c0       	rjmp	.+24     	; 0xac2 <timer1Config+0x36>
     aaa:	98 60       	ori	r25, 0x08	; 8
     aac:	83 70       	andi	r24, 0x03	; 3
     aae:	2c 7f       	andi	r18, 0xFC	; 252
     ab0:	28 2b       	or	r18, r24
     ab2:	20 93 80 00 	sts	0x0080, r18	; 0x800080 <__TEXT_REGION_LENGTH__+0x7e0080>
     ab6:	90 93 81 00 	sts	0x0081, r25	; 0x800081 <__TEXT_REGION_LENGTH__+0x7e0081>
     aba:	80 e0       	ldi	r24, 0x00	; 0
     abc:	08 95       	ret
     abe:	9f 7e       	andi	r25, 0xEF	; 239
     ac0:	f2 cf       	rjmp	.-28     	; 0xaa6 <timer1Config+0x1a>
     ac2:	97 7f       	andi	r25, 0xF7	; 247
     ac4:	f3 cf       	rjmp	.-26     	; 0xaac <timer1Config+0x20>

00000ac6 <timer1OutputConfig>:
     ac6:	90 91 80 00 	lds	r25, 0x0080	; 0x800080 <__TEXT_REGION_LENGTH__+0x7e0080>
     aca:	8f 3f       	cpi	r24, 0xFF	; 255
     acc:	31 f0       	breq	.+12     	; 0xada <timer1OutputConfig+0x14>
     ace:	40 e4       	ldi	r20, 0x40	; 64
     ad0:	84 9f       	mul	r24, r20
     ad2:	90 01       	movw	r18, r0
     ad4:	11 24       	eor	r1, r1
     ad6:	9f 73       	andi	r25, 0x3F	; 63
     ad8:	92 2b       	or	r25, r18
     ada:	6f 3f       	cpi	r22, 0xFF	; 255
     adc:	31 f0       	breq	.+12     	; 0xaea <timer1OutputConfig+0x24>
     ade:	80 e1       	ldi	r24, 0x10	; 16
     ae0:	68 9f       	mul	r22, r24
     ae2:	b0 01       	movw	r22, r0
     ae4:	11 24       	eor	r1, r1
     ae6:	9f 7c       	andi	r25, 0xCF	; 207
     ae8:	96 2b       	or	r25, r22
     aea:	90 93 80 00 	sts	0x0080, r25	; 0x800080 <__TEXT_REGION_LENGTH__+0x7e0080>
     aee:	80 e0       	ldi	r24, 0x00	; 0
     af0:	08 95       	ret

00000af2 <timer1InputCaptureNoiseCancelerConfig>:
     af2:	e1 e8       	ldi	r30, 0x81	; 129
     af4:	f0 e0       	ldi	r31, 0x00	; 0
     af6:	90 81       	ld	r25, Z
     af8:	9f 73       	andi	r25, 0x3F	; 63
     afa:	89 2b       	or	r24, r25
     afc:	80 83       	st	Z, r24
     afe:	80 e0       	ldi	r24, 0x00	; 0
     b00:	08 95       	ret

00000b02 <timer1ActivateOverflowInterrupt>:
     b02:	ef e6       	ldi	r30, 0x6F	; 111
     b04:	f0 e0       	ldi	r31, 0x00	; 0
     b06:	80 81       	ld	r24, Z
     b08:	81 60       	ori	r24, 0x01	; 1
     b0a:	80 83       	st	Z, r24
     b0c:	80 e0       	ldi	r24, 0x00	; 0
     b0e:	08 95       	ret

00000b10 <timer1DeactivateOverflowInterrupt>:
     b10:	ef e6       	ldi	r30, 0x6F	; 111
     b12:	f0 e0       	ldi	r31, 0x00	; 0
     b14:	80 81       	ld	r24, Z
     b16:	8e 7f       	andi	r24, 0xFE	; 254
     b18:	80 83       	st	Z, r24
     b1a:	80 e0       	ldi	r24, 0x00	; 0
     b1c:	08 95       	ret

00000b1e <timer1ClearOverflowInterruptRequest>:
     b1e:	b0 9a       	sbi	0x16, 0	; 22
     b20:	80 e0       	ldi	r24, 0x00	; 0
     b22:	08 95       	ret

00000b24 <timer1ActivateCompareAInterrupt>:
     b24:	ef e6       	ldi	r30, 0x6F	; 111
     b26:	f0 e0       	ldi	r31, 0x00	; 0
     b28:	80 81       	ld	r24, Z
     b2a:	82 60       	ori	r24, 0x02	; 2
     b2c:	80 83       	st	Z, r24
     b2e:	80 e0       	ldi	r24, 0x00	; 0
     b30:	08 95       	ret

00000b32 <timer1DeactivateCompareAInterrupt>:
     b32:	ef e6       	ldi	r30, 0x6F	; 111
     b34:	f0 e0       	ldi	r31, 0x00	; 0
     b36:	80 81       	ld	r24, Z
     b38:	8d 7f       	andi	r24, 0xFD	; 253
     b3a:	80 83       	st	Z, r24
     b3c:	80 e0       	ldi	r24, 0x00	; 0
     b3e:	08 95       	ret

00000b40 <timer1ClearCompareAInterruptRequest>:
     b40:	b1 9a       	sbi	0x16, 1	; 22
     b42:	80 e0       	ldi	r24, 0x00	; 0
     b44:	08 95       	ret

00000b46 <timer1ActivateCompareBInterrupt>:
     b46:	ef e6       	ldi	r30, 0x6F	; 111
     b48:	f0 e0       	ldi	r31, 0x00	; 0
     b4a:	80 81       	ld	r24, Z
     b4c:	84 60       	ori	r24, 0x04	; 4
     b4e:	80 83       	st	Z, r24
     b50:	80 e0       	ldi	r24, 0x00	; 0
     b52:	08 95       	ret

00000b54 <timer1DeactivateCompareBInterrupt>:
     b54:	ef e6       	ldi	r30, 0x6F	; 111
     b56:	f0 e0       	ldi	r31, 0x00	; 0
     b58:	80 81       	ld	r24, Z
     b5a:	8b 7f       	andi	r24, 0xFB	; 251
     b5c:	80 83       	st	Z, r24
     b5e:	80 e0       	ldi	r24, 0x00	; 0
     b60:	08 95       	ret

00000b62 <timer1ClearCompareBInterruptRequest>:
     b62:	b2 9a       	sbi	0x16, 2	; 22
     b64:	80 e0       	ldi	r24, 0x00	; 0
     b66:	08 95       	ret

00000b68 <timer1ActivateInputCaptureInterrupt>:
     b68:	ef e6       	ldi	r30, 0x6F	; 111
     b6a:	f0 e0       	ldi	r31, 0x00	; 0
     b6c:	80 81       	ld	r24, Z
     b6e:	80 62       	ori	r24, 0x20	; 32
     b70:	80 83       	st	Z, r24
     b72:	80 e0       	ldi	r24, 0x00	; 0
     b74:	08 95       	ret

00000b76 <timer1DeactivateInputCaptureInterrupt>:
     b76:	ef e6       	ldi	r30, 0x6F	; 111
     b78:	f0 e0       	ldi	r31, 0x00	; 0
     b7a:	80 81       	ld	r24, Z
     b7c:	8f 7d       	andi	r24, 0xDF	; 223
     b7e:	80 83       	st	Z, r24
     b80:	80 e0       	ldi	r24, 0x00	; 0
     b82:	08 95       	ret

00000b84 <timer1ClearInputCaptureInterruptRequest>:
     b84:	b5 9a       	sbi	0x16, 5	; 22
     b86:	80 e0       	ldi	r24, 0x00	; 0
     b88:	08 95       	ret

00000b8a <timer1ForceCompareA>:
     b8a:	e2 e8       	ldi	r30, 0x82	; 130
     b8c:	f0 e0       	ldi	r31, 0x00	; 0
     b8e:	80 81       	ld	r24, Z
     b90:	80 68       	ori	r24, 0x80	; 128
     b92:	80 83       	st	Z, r24
     b94:	80 e0       	ldi	r24, 0x00	; 0
     b96:	08 95       	ret

00000b98 <timer1ForceCompareB>:
     b98:	e2 e8       	ldi	r30, 0x82	; 130
     b9a:	f0 e0       	ldi	r31, 0x00	; 0
     b9c:	80 81       	ld	r24, Z
     b9e:	80 64       	ori	r24, 0x40	; 64
     ba0:	80 83       	st	Z, r24
     ba2:	80 e0       	ldi	r24, 0x00	; 0
     ba4:	08 95       	ret

00000ba6 <timer1SetCounterValue>:
     ba6:	9c 01       	movw	r18, r24
     ba8:	9f b7       	in	r25, 0x3f	; 63
     baa:	f8 94       	cli
     bac:	30 93 85 00 	sts	0x0085, r19	; 0x800085 <__TEXT_REGION_LENGTH__+0x7e0085>
     bb0:	20 93 84 00 	sts	0x0084, r18	; 0x800084 <__TEXT_REGION_LENGTH__+0x7e0084>
     bb4:	9f bf       	out	0x3f, r25	; 63
     bb6:	80 e0       	ldi	r24, 0x00	; 0
     bb8:	08 95       	ret

00000bba <timer1GetCounterValue>:
     bba:	80 91 84 00 	lds	r24, 0x0084	; 0x800084 <__TEXT_REGION_LENGTH__+0x7e0084>
     bbe:	90 91 85 00 	lds	r25, 0x0085	; 0x800085 <__TEXT_REGION_LENGTH__+0x7e0085>
     bc2:	08 95       	ret

00000bc4 <timer1SetCompareAValue>:
     bc4:	9c 01       	movw	r18, r24
     bc6:	9f b7       	in	r25, 0x3f	; 63
     bc8:	f8 94       	cli
     bca:	30 93 89 00 	sts	0x0089, r19	; 0x800089 <__TEXT_REGION_LENGTH__+0x7e0089>
     bce:	20 93 88 00 	sts	0x0088, r18	; 0x800088 <__TEXT_REGION_LENGTH__+0x7e0088>
     bd2:	9f bf       	out	0x3f, r25	; 63
     bd4:	80 e0       	ldi	r24, 0x00	; 0
     bd6:	08 95       	ret

00000bd8 <timer1GetCompareAValue>:
     bd8:	80 91 88 00 	lds	r24, 0x0088	; 0x800088 <__TEXT_REGION_LENGTH__+0x7e0088>
     bdc:	90 91 89 00 	lds	r25, 0x0089	; 0x800089 <__TEXT_REGION_LENGTH__+0x7e0089>
     be0:	08 95       	ret

00000be2 <timer1SetCompareBValue>:
     be2:	9c 01       	movw	r18, r24
     be4:	9f b7       	in	r25, 0x3f	; 63
     be6:	f8 94       	cli
     be8:	30 93 8b 00 	sts	0x008B, r19	; 0x80008b <__TEXT_REGION_LENGTH__+0x7e008b>
     bec:	20 93 8a 00 	sts	0x008A, r18	; 0x80008a <__TEXT_REGION_LENGTH__+0x7e008a>
     bf0:	9f bf       	out	0x3f, r25	; 63
     bf2:	80 e0       	ldi	r24, 0x00	; 0
     bf4:	08 95       	ret

00000bf6 <timer1GetCompareBValue>:
     bf6:	80 91 8a 00 	lds	r24, 0x008A	; 0x80008a <__TEXT_REGION_LENGTH__+0x7e008a>
     bfa:	90 91 8b 00 	lds	r25, 0x008B	; 0x80008b <__TEXT_REGION_LENGTH__+0x7e008b>
     bfe:	08 95       	ret

00000c00 <timer1SetInputCaptureValue>:
     c00:	9c 01       	movw	r18, r24
     c02:	9f b7       	in	r25, 0x3f	; 63
     c04:	f8 94       	cli
     c06:	30 93 87 00 	sts	0x0087, r19	; 0x800087 <__TEXT_REGION_LENGTH__+0x7e0087>
     c0a:	20 93 86 00 	sts	0x0086, r18	; 0x800086 <__TEXT_REGION_LENGTH__+0x7e0086>
     c0e:	9f bf       	out	0x3f, r25	; 63
     c10:	80 e0       	ldi	r24, 0x00	; 0
     c12:	08 95       	ret

00000c14 <timer1GetInputCaptureValue>:
     c14:	80 91 86 00 	lds	r24, 0x0086	; 0x800086 <__TEXT_REGION_LENGTH__+0x7e0086>
     c18:	90 91 87 00 	lds	r25, 0x0087	; 0x800087 <__TEXT_REGION_LENGTH__+0x7e0087>
     c1c:	08 95       	ret

00000c1e <timer2Config>:
     c1e:	20 91 b0 00 	lds	r18, 0x00B0	; 0x8000b0 <__TEXT_REGION_LENGTH__+0x7e00b0>
     c22:	90 91 b1 00 	lds	r25, 0x00B1	; 0x8000b1 <__TEXT_REGION_LENGTH__+0x7e00b1>
     c26:	6f 3f       	cpi	r22, 0xFF	; 255
     c28:	11 f0       	breq	.+4      	; 0xc2e <timer2Config+0x10>
     c2a:	98 7f       	andi	r25, 0xF8	; 248
     c2c:	96 2b       	or	r25, r22
     c2e:	8f 3f       	cpi	r24, 0xFF	; 255
     c30:	31 f0       	breq	.+12     	; 0xc3e <timer2Config+0x20>
     c32:	82 ff       	sbrs	r24, 2
     c34:	0a c0       	rjmp	.+20     	; 0xc4a <timer2Config+0x2c>
     c36:	98 60       	ori	r25, 0x08	; 8
     c38:	83 70       	andi	r24, 0x03	; 3
     c3a:	2c 7f       	andi	r18, 0xFC	; 252
     c3c:	28 2b       	or	r18, r24
     c3e:	20 93 b0 00 	sts	0x00B0, r18	; 0x8000b0 <__TEXT_REGION_LENGTH__+0x7e00b0>
     c42:	90 93 b1 00 	sts	0x00B1, r25	; 0x8000b1 <__TEXT_REGION_LENGTH__+0x7e00b1>
     c46:	80 e0       	ldi	r24, 0x00	; 0
     c48:	08 95       	ret
     c4a:	97 7f       	andi	r25, 0xF7	; 247
     c4c:	f5 cf       	rjmp	.-22     	; 0xc38 <timer2Config+0x1a>

00000c4e <timer2OutputConfig>:
     c4e:	90 91 b0 00 	lds	r25, 0x00B0	; 0x8000b0 <__TEXT_REGION_LENGTH__+0x7e00b0>
     c52:	8f 3f       	cpi	r24, 0xFF	; 255
     c54:	31 f0       	breq	.+12     	; 0xc62 <timer2OutputConfig+0x14>
     c56:	40 e4       	ldi	r20, 0x40	; 64
     c58:	84 9f       	mul	r24, r20
     c5a:	90 01       	movw	r18, r0
     c5c:	11 24       	eor	r1, r1
     c5e:	9f 73       	andi	r25, 0x3F	; 63
     c60:	92 2b       	or	r25, r18
     c62:	6f 3f       	cpi	r22, 0xFF	; 255
     c64:	31 f0       	breq	.+12     	; 0xc72 <timer2OutputConfig+0x24>
     c66:	80 e1       	ldi	r24, 0x10	; 16
     c68:	68 9f       	mul	r22, r24
     c6a:	b0 01       	movw	r22, r0
     c6c:	11 24       	eor	r1, r1
     c6e:	9f 7c       	andi	r25, 0xCF	; 207
     c70:	96 2b       	or	r25, r22
     c72:	90 93 b0 00 	sts	0x00B0, r25	; 0x8000b0 <__TEXT_REGION_LENGTH__+0x7e00b0>
     c76:	80 e0       	ldi	r24, 0x00	; 0
     c78:	08 95       	ret

00000c7a <timer2ActivateOverflowInterrupt>:
     c7a:	e0 e7       	ldi	r30, 0x70	; 112
     c7c:	f0 e0       	ldi	r31, 0x00	; 0
     c7e:	80 81       	ld	r24, Z
     c80:	81 60       	ori	r24, 0x01	; 1
     c82:	80 83       	st	Z, r24
     c84:	80 e0       	ldi	r24, 0x00	; 0
     c86:	08 95       	ret

00000c88 <timer2DeactivateOverflowInterrupt>:
     c88:	e0 e7       	ldi	r30, 0x70	; 112
     c8a:	f0 e0       	ldi	r31, 0x00	; 0
     c8c:	80 81       	ld	r24, Z
     c8e:	8e 7f       	andi	r24, 0xFE	; 254
     c90:	80 83       	st	Z, r24
     c92:	80 e0       	ldi	r24, 0x00	; 0
     c94:	08 95       	ret

00000c96 <timer2ClearOverflowInterruptRequest>:
     c96:	b8 9a       	sbi	0x17, 0	; 23
     c98:	80 e0       	ldi	r24, 0x00	; 0
     c9a:	08 95       	ret

00000c9c <timer2ActivateCompareAInterrupt>:
     c9c:	e0 e7       	ldi	r30, 0x70	; 112
     c9e:	f0 e0       	ldi	r31, 0x00	; 0
     ca0:	80 81       	ld	r24, Z
     ca2:	82 60       	ori	r24, 0x02	; 2
     ca4:	80 83       	st	Z, r24
     ca6:	80 e0       	ldi	r24, 0x00	; 0
     ca8:	08 95       	ret

00000caa <timer2DeactivateCompareAInterrupt>:
     caa:	e0 e7       	ldi	r30, 0x70	; 112
     cac:	f0 e0       	ldi	r31, 0x00	; 0
     cae:	80 81       	ld	r24, Z
     cb0:	8d 7f       	andi	r24, 0xFD	; 253
     cb2:	80 83       	st	Z, r24
     cb4:	80 e0       	ldi	r24, 0x00	; 0
     cb6:	08 95       	ret

00000cb8 <timer2ClearCompareAInterruptRequest>:
     cb8:	b9 9a       	sbi	0x17, 1	; 23
     cba:	80 e0       	ldi	r24, 0x00	; 0
     cbc:	08 95       	ret

00000cbe <timer2ActivateCompareBInterrupt>:
     cbe:	e0 e7       	ldi	r30, 0x70	; 112
     cc0:	f0 e0       	ldi	r31, 0x00	; 0
     cc2:	80 81       	ld	r24, Z
     cc4:	84 60       	ori	r24, 0x04	; 4
     cc6:	80 83       	st	Z, r24
     cc8:	80 e0       	ldi	r24, 0x00	; 0
     cca:	08 95       	ret

00000ccc <timer2DeactivateCompareBInterrupt>:
     ccc:	e0 e7       	ldi	r30, 0x70	; 112
     cce:	f0 e0       	ldi	r31, 0x00	; 0
     cd0:	80 81       	ld	r24, Z
     cd2:	8b 7f       	andi	r24, 0xFB	; 251
     cd4:	80 83       	st	Z, r24
     cd6:	80 e0       	ldi	r24, 0x00	; 0
     cd8:	08 95       	ret

00000cda <timer2ClearCompareBInterruptRequest>:
     cda:	ba 9a       	sbi	0x17, 2	; 23
     cdc:	80 e0       	ldi	r24, 0x00	; 0
     cde:	08 95       	ret

00000ce0 <timer2ForceCompareA>:
     ce0:	e1 eb       	ldi	r30, 0xB1	; 177
     ce2:	f0 e0       	ldi	r31, 0x00	; 0
     ce4:	80 81       	ld	r24, Z
     ce6:	80 68       	ori	r24, 0x80	; 128
     ce8:	80 83       	st	Z, r24
     cea:	80 e0       	ldi	r24, 0x00	; 0
     cec:	08 95       	ret

00000cee <timer2ForceCompareB>:
     cee:	e1 eb       	ldi	r30, 0xB1	; 177
     cf0:	f0 e0       	ldi	r31, 0x00	; 0
     cf2:	80 81       	ld	r24, Z
     cf4:	80 64       	ori	r24, 0x40	; 64
     cf6:	80 83       	st	Z, r24
     cf8:	80 e0       	ldi	r24, 0x00	; 0
     cfa:	08 95       	ret

00000cfc <timer2SetCounterValue>:
     cfc:	80 93 b2 00 	sts	0x00B2, r24	; 0x8000b2 <__TEXT_REGION_LENGTH__+0x7e00b2>
     d00:	80 e0       	ldi	r24, 0x00	; 0
     d02:	08 95       	ret

00000d04 <timer2GetCounterValue>:
     d04:	80 91 b2 00 	lds	r24, 0x00B2	; 0x8000b2 <__TEXT_REGION_LENGTH__+0x7e00b2>
     d08:	08 95       	ret

00000d0a <timer2SetCompareAValue>:
     d0a:	80 93 b3 00 	sts	0x00B3, r24	; 0x8000b3 <__TEXT_REGION_LENGTH__+0x7e00b3>
     d0e:	80 e0       	ldi	r24, 0x00	; 0
     d10:	08 95       	ret

00000d12 <timer2GetCompareAValue>:
     d12:	80 91 b3 00 	lds	r24, 0x00B3	; 0x8000b3 <__TEXT_REGION_LENGTH__+0x7e00b3>
     d16:	08 95       	ret

00000d18 <timer2SetCompareBValue>:
     d18:	80 93 b4 00 	sts	0x00B4, r24	; 0x8000b4 <__TEXT_REGION_LENGTH__+0x7e00b4>
     d1c:	80 e0       	ldi	r24, 0x00	; 0
     d1e:	08 95       	ret

00000d20 <timer2GetCompareBValue>:
     d20:	80 91 b4 00 	lds	r24, 0x00B4	; 0x8000b4 <__TEXT_REGION_LENGTH__+0x7e00b4>
     d24:	08 95       	ret

00000d26 <adcConfig>:
     d26:	e8 2f       	mov	r30, r24
     d28:	6f 3f       	cpi	r22, 0xFF	; 255
     d2a:	59 f0       	breq	.+22     	; 0xd42 <adcConfig+0x1c>
     d2c:	80 91 7c 00 	lds	r24, 0x007C	; 0x80007c <__TEXT_REGION_LENGTH__+0x7e007c>
     d30:	90 e4       	ldi	r25, 0x40	; 64
     d32:	69 9f       	mul	r22, r25
     d34:	90 01       	movw	r18, r0
     d36:	11 24       	eor	r1, r1
     d38:	68 2f       	mov	r22, r24
     d3a:	6f 73       	andi	r22, 0x3F	; 63
     d3c:	62 2b       	or	r22, r18
     d3e:	60 93 7c 00 	sts	0x007C, r22	; 0x80007c <__TEXT_REGION_LENGTH__+0x7e007c>
     d42:	4f 3f       	cpi	r20, 0xFF	; 255
     d44:	31 f0       	breq	.+12     	; 0xd52 <adcConfig+0x2c>
     d46:	80 91 7a 00 	lds	r24, 0x007A	; 0x80007a <__TEXT_REGION_LENGTH__+0x7e007a>
     d4a:	88 7f       	andi	r24, 0xF8	; 248
     d4c:	48 2b       	or	r20, r24
     d4e:	40 93 7a 00 	sts	0x007A, r20	; 0x80007a <__TEXT_REGION_LENGTH__+0x7e007a>
     d52:	ef 3f       	cpi	r30, 0xFF	; 255
     d54:	39 f0       	breq	.+14     	; 0xd64 <adcConfig+0x3e>
     d56:	e1 11       	cpse	r30, r1
     d58:	07 c0       	rjmp	.+14     	; 0xd68 <adcConfig+0x42>
     d5a:	80 91 7a 00 	lds	r24, 0x007A	; 0x80007a <__TEXT_REGION_LENGTH__+0x7e007a>
     d5e:	8f 7d       	andi	r24, 0xDF	; 223
     d60:	80 93 7a 00 	sts	0x007A, r24	; 0x80007a <__TEXT_REGION_LENGTH__+0x7e007a>
     d64:	80 e0       	ldi	r24, 0x00	; 0
     d66:	08 95       	ret
     d68:	90 91 7b 00 	lds	r25, 0x007B	; 0x80007b <__TEXT_REGION_LENGTH__+0x7e007b>
     d6c:	98 7f       	andi	r25, 0xF8	; 248
     d6e:	4e 2f       	mov	r20, r30
     d70:	50 e0       	ldi	r21, 0x00	; 0
     d72:	fa 01       	movw	r30, r20
     d74:	32 97       	sbiw	r30, 0x02	; 2
     d76:	e7 30       	cpi	r30, 0x07	; 7
     d78:	f1 05       	cpc	r31, r1
     d7a:	f0 f4       	brcc	.+60     	; 0xdb8 <adcConfig+0x92>
     d7c:	ee 53       	subi	r30, 0x3E	; 62
     d7e:	f9 4f       	sbci	r31, 0xF9	; 249
     d80:	0c 94 1b 0e 	jmp	0x1c36	; 0x1c36 <__tablejump2__>
     d84:	c9 06       	cpc	r12, r25
     d86:	d0 06       	cpc	r13, r16
     d88:	d2 06       	cpc	r13, r18
     d8a:	d4 06       	cpc	r13, r20
     d8c:	d6 06       	cpc	r13, r22
     d8e:	d8 06       	cpc	r13, r24
     d90:	da 06       	cpc	r13, r26
     d92:	91 60       	ori	r25, 0x01	; 1
     d94:	90 93 7b 00 	sts	0x007B, r25	; 0x80007b <__TEXT_REGION_LENGTH__+0x7e007b>
     d98:	80 91 7a 00 	lds	r24, 0x007A	; 0x80007a <__TEXT_REGION_LENGTH__+0x7e007a>
     d9c:	80 62       	ori	r24, 0x20	; 32
     d9e:	e0 cf       	rjmp	.-64     	; 0xd60 <adcConfig+0x3a>
     da0:	92 60       	ori	r25, 0x02	; 2
     da2:	f8 cf       	rjmp	.-16     	; 0xd94 <adcConfig+0x6e>
     da4:	93 60       	ori	r25, 0x03	; 3
     da6:	f6 cf       	rjmp	.-20     	; 0xd94 <adcConfig+0x6e>
     da8:	94 60       	ori	r25, 0x04	; 4
     daa:	f4 cf       	rjmp	.-24     	; 0xd94 <adcConfig+0x6e>
     dac:	95 60       	ori	r25, 0x05	; 5
     dae:	f2 cf       	rjmp	.-28     	; 0xd94 <adcConfig+0x6e>
     db0:	96 60       	ori	r25, 0x06	; 6
     db2:	f0 cf       	rjmp	.-32     	; 0xd94 <adcConfig+0x6e>
     db4:	97 60       	ori	r25, 0x07	; 7
     db6:	ee cf       	rjmp	.-36     	; 0xd94 <adcConfig+0x6e>
     db8:	87 e0       	ldi	r24, 0x07	; 7
     dba:	08 95       	ret

00000dbc <adcSelectChannel>:
     dbc:	ec e7       	ldi	r30, 0x7C	; 124
     dbe:	f0 e0       	ldi	r31, 0x00	; 0
     dc0:	90 81       	ld	r25, Z
     dc2:	90 7f       	andi	r25, 0xF0	; 240
     dc4:	89 2b       	or	r24, r25
     dc6:	80 83       	st	Z, r24
     dc8:	80 e0       	ldi	r24, 0x00	; 0
     dca:	08 95       	ret

00000dcc <adcEnableDigitalInput>:
     dcc:	ee e7       	ldi	r30, 0x7E	; 126
     dce:	f0 e0       	ldi	r31, 0x00	; 0
     dd0:	90 81       	ld	r25, Z
     dd2:	80 95       	com	r24
     dd4:	89 23       	and	r24, r25
     dd6:	80 83       	st	Z, r24
     dd8:	80 e0       	ldi	r24, 0x00	; 0
     dda:	08 95       	ret

00000ddc <adcDisableDigitalInput>:
     ddc:	ee e7       	ldi	r30, 0x7E	; 126
     dde:	f0 e0       	ldi	r31, 0x00	; 0
     de0:	90 81       	ld	r25, Z
     de2:	89 2b       	or	r24, r25
     de4:	80 83       	st	Z, r24
     de6:	80 e0       	ldi	r24, 0x00	; 0
     de8:	08 95       	ret

00000dea <adcDataPresentation>:
     dea:	81 11       	cpse	r24, r1
     dec:	07 c0       	rjmp	.+14     	; 0xdfc <adcDataPresentation+0x12>
     dee:	80 91 7c 00 	lds	r24, 0x007C	; 0x80007c <__TEXT_REGION_LENGTH__+0x7e007c>
     df2:	80 62       	ori	r24, 0x20	; 32
     df4:	80 93 7c 00 	sts	0x007C, r24	; 0x80007c <__TEXT_REGION_LENGTH__+0x7e007c>
     df8:	80 e0       	ldi	r24, 0x00	; 0
     dfa:	08 95       	ret
     dfc:	80 91 7c 00 	lds	r24, 0x007C	; 0x80007c <__TEXT_REGION_LENGTH__+0x7e007c>
     e00:	8f 7d       	andi	r24, 0xDF	; 223
     e02:	f8 cf       	rjmp	.-16     	; 0xdf4 <adcDataPresentation+0xa>

00000e04 <adcEnable>:
     e04:	ea e7       	ldi	r30, 0x7A	; 122
     e06:	f0 e0       	ldi	r31, 0x00	; 0
     e08:	80 81       	ld	r24, Z
     e0a:	80 68       	ori	r24, 0x80	; 128
     e0c:	80 83       	st	Z, r24
     e0e:	80 e0       	ldi	r24, 0x00	; 0
     e10:	08 95       	ret

00000e12 <adcDisable>:
     e12:	ea e7       	ldi	r30, 0x7A	; 122
     e14:	f0 e0       	ldi	r31, 0x00	; 0
     e16:	80 81       	ld	r24, Z
     e18:	8f 77       	andi	r24, 0x7F	; 127
     e1a:	80 83       	st	Z, r24
     e1c:	80 e0       	ldi	r24, 0x00	; 0
     e1e:	08 95       	ret

00000e20 <adcClearInterruptRequest>:
     e20:	ea e7       	ldi	r30, 0x7A	; 122
     e22:	f0 e0       	ldi	r31, 0x00	; 0
     e24:	80 81       	ld	r24, Z
     e26:	80 61       	ori	r24, 0x10	; 16
     e28:	80 83       	st	Z, r24
     e2a:	80 e0       	ldi	r24, 0x00	; 0
     e2c:	08 95       	ret

00000e2e <adcActivateInterrupt>:
     e2e:	ea e7       	ldi	r30, 0x7A	; 122
     e30:	f0 e0       	ldi	r31, 0x00	; 0
     e32:	80 81       	ld	r24, Z
     e34:	88 60       	ori	r24, 0x08	; 8
     e36:	80 83       	st	Z, r24
     e38:	80 e0       	ldi	r24, 0x00	; 0
     e3a:	08 95       	ret

00000e3c <adcDeactivateInterrupt>:
     e3c:	ea e7       	ldi	r30, 0x7A	; 122
     e3e:	f0 e0       	ldi	r31, 0x00	; 0
     e40:	80 81       	ld	r24, Z
     e42:	87 7f       	andi	r24, 0xF7	; 247
     e44:	80 83       	st	Z, r24
     e46:	80 e0       	ldi	r24, 0x00	; 0
     e48:	08 95       	ret

00000e4a <adcStartConversion>:
     e4a:	ea e7       	ldi	r30, 0x7A	; 122
     e4c:	f0 e0       	ldi	r31, 0x00	; 0
     e4e:	80 81       	ld	r24, Z
     e50:	80 64       	ori	r24, 0x40	; 64
     e52:	80 83       	st	Z, r24
     e54:	80 e0       	ldi	r24, 0x00	; 0
     e56:	08 95       	ret

00000e58 <adcIsBusy>:
     e58:	80 91 7a 00 	lds	r24, 0x007A	; 0x80007a <__TEXT_REGION_LENGTH__+0x7e007a>
     e5c:	86 fb       	bst	r24, 6
     e5e:	88 27       	eor	r24, r24
     e60:	80 f9       	bld	r24, 0
     e62:	08 95       	ret

00000e64 <adcWaitUntilConversionFinish>:
     e64:	80 91 7a 00 	lds	r24, 0x007A	; 0x80007a <__TEXT_REGION_LENGTH__+0x7e007a>
     e68:	86 fd       	sbrc	r24, 6
     e6a:	fc cf       	rjmp	.-8      	; 0xe64 <adcWaitUntilConversionFinish>
     e6c:	80 e0       	ldi	r24, 0x00	; 0
     e6e:	08 95       	ret

00000e70 <usartConfig>:
     e70:	8f 92       	push	r8
     e72:	9f 92       	push	r9
     e74:	af 92       	push	r10
     e76:	bf 92       	push	r11
     e78:	cf 92       	push	r12
     e7a:	df 92       	push	r13
     e7c:	ef 92       	push	r14
     e7e:	ff 92       	push	r15
     e80:	0f 93       	push	r16
     e82:	4a 01       	movw	r8, r20
     e84:	5b 01       	movw	r10, r22
     e86:	9e 2d       	mov	r25, r14
     e88:	30 91 c0 00 	lds	r19, 0x00C0	; 0x8000c0 <__TEXT_REGION_LENGTH__+0x7e00c0>
     e8c:	30 91 c1 00 	lds	r19, 0x00C1	; 0x8000c1 <__TEXT_REGION_LENGTH__+0x7e00c1>
     e90:	30 91 c2 00 	lds	r19, 0x00C2	; 0x8000c2 <__TEXT_REGION_LENGTH__+0x7e00c2>
     e94:	9f 3f       	cpi	r25, 0xFF	; 255
     e96:	19 f0       	breq	.+6      	; 0xe9e <usartConfig+0x2e>
     e98:	92 30       	cpi	r25, 0x02	; 2
     e9a:	08 f0       	brcs	.+2      	; 0xe9e <usartConfig+0x2e>
     e9c:	71 c0       	rjmp	.+226    	; 0xf80 <usartConfig+0x110>
     e9e:	0f 3f       	cpi	r16, 0xFF	; 255
     ea0:	19 f0       	breq	.+6      	; 0xea8 <usartConfig+0x38>
     ea2:	03 30       	cpi	r16, 0x03	; 3
     ea4:	08 f0       	brcs	.+2      	; 0xea8 <usartConfig+0x38>
     ea6:	77 c0       	rjmp	.+238    	; 0xf96 <usartConfig+0x126>
     ea8:	2f 3f       	cpi	r18, 0xFF	; 255
     eaa:	19 f0       	breq	.+6      	; 0xeb2 <usartConfig+0x42>
     eac:	25 30       	cpi	r18, 0x05	; 5
     eae:	08 f0       	brcs	.+2      	; 0xeb2 <usartConfig+0x42>
     eb0:	72 c0       	rjmp	.+228    	; 0xf96 <usartConfig+0x126>
     eb2:	8f 3f       	cpi	r24, 0xFF	; 255
     eb4:	09 f0       	breq	.+2      	; 0xeb8 <usartConfig+0x48>
     eb6:	4a c0       	rjmp	.+148    	; 0xf4c <usartConfig+0xdc>
     eb8:	80 91 c2 00 	lds	r24, 0x00C2	; 0x8000c2 <__TEXT_REGION_LENGTH__+0x7e00c2>
     ebc:	82 95       	swap	r24
     ebe:	86 95       	lsr	r24
     ec0:	86 95       	lsr	r24
     ec2:	83 70       	andi	r24, 0x03	; 3
     ec4:	c9 f0       	breq	.+50     	; 0xef8 <usartConfig+0x88>
     ec6:	83 30       	cpi	r24, 0x03	; 3
     ec8:	09 f4       	brne	.+2      	; 0xecc <usartConfig+0x5c>
     eca:	67 c0       	rjmp	.+206    	; 0xf9a <usartConfig+0x12a>
     ecc:	9f ef       	ldi	r25, 0xFF	; 255
     ece:	89 16       	cp	r8, r25
     ed0:	99 06       	cpc	r9, r25
     ed2:	a9 06       	cpc	r10, r25
     ed4:	b9 06       	cpc	r11, r25
     ed6:	c1 f1       	breq	.+112    	; 0xf48 <usartConfig+0xd8>
     ed8:	60 ed       	ldi	r22, 0xD0	; 208
     eda:	72 e1       	ldi	r23, 0x12	; 18
     edc:	83 e1       	ldi	r24, 0x13	; 19
     ede:	90 e0       	ldi	r25, 0x00	; 0
     ee0:	a5 01       	movw	r20, r10
     ee2:	94 01       	movw	r18, r8
     ee4:	0e 94 f9 0d 	call	0x1bf2	; 0x1bf2 <__udivmodsi4>
     ee8:	49 01       	movw	r8, r18
     eea:	5a 01       	movw	r10, r20
     eec:	81 e0       	ldi	r24, 0x01	; 1
     eee:	88 1a       	sub	r8, r24
     ef0:	91 08       	sbc	r9, r1
     ef2:	a1 08       	sbc	r10, r1
     ef4:	b1 08       	sbc	r11, r1
     ef6:	19 c0       	rjmp	.+50     	; 0xf2a <usartConfig+0xba>
     ef8:	80 91 c0 00 	lds	r24, 0x00C0	; 0x8000c0 <__TEXT_REGION_LENGTH__+0x7e00c0>
     efc:	81 ff       	sbrs	r24, 1
     efe:	e6 cf       	rjmp	.-52     	; 0xecc <usartConfig+0x5c>
     f00:	8f ef       	ldi	r24, 0xFF	; 255
     f02:	88 16       	cp	r8, r24
     f04:	98 06       	cpc	r9, r24
     f06:	a8 06       	cpc	r10, r24
     f08:	b8 06       	cpc	r11, r24
     f0a:	f1 f0       	breq	.+60     	; 0xf48 <usartConfig+0xd8>
     f0c:	60 ea       	ldi	r22, 0xA0	; 160
     f0e:	75 e2       	ldi	r23, 0x25	; 37
     f10:	86 e2       	ldi	r24, 0x26	; 38
     f12:	90 e0       	ldi	r25, 0x00	; 0
     f14:	a5 01       	movw	r20, r10
     f16:	94 01       	movw	r18, r8
     f18:	0e 94 f9 0d 	call	0x1bf2	; 0x1bf2 <__udivmodsi4>
     f1c:	49 01       	movw	r8, r18
     f1e:	5a 01       	movw	r10, r20
     f20:	91 e0       	ldi	r25, 0x01	; 1
     f22:	89 1a       	sub	r8, r25
     f24:	91 08       	sbc	r9, r1
     f26:	a1 08       	sbc	r10, r1
     f28:	b1 08       	sbc	r11, r1
     f2a:	c1 2c       	mov	r12, r1
     f2c:	d1 2c       	mov	r13, r1
     f2e:	76 01       	movw	r14, r12
     f30:	94 01       	movw	r18, r8
     f32:	a5 01       	movw	r20, r10
     f34:	b6 01       	movw	r22, r12
     f36:	c7 01       	movw	r24, r14
     f38:	08 e0       	ldi	r16, 0x08	; 8
     f3a:	0e 94 23 0e 	call	0x1c46	; 0x1c46 <__lshrdi3>
     f3e:	2f 70       	andi	r18, 0x0F	; 15
     f40:	20 93 c5 00 	sts	0x00C5, r18	; 0x8000c5 <__TEXT_REGION_LENGTH__+0x7e00c5>
     f44:	80 92 c4 00 	sts	0x00C4, r8	; 0x8000c4 <__TEXT_REGION_LENGTH__+0x7e00c4>
     f48:	80 e0       	ldi	r24, 0x00	; 0
     f4a:	1b c0       	rjmp	.+54     	; 0xf82 <usartConfig+0x112>
     f4c:	9f ef       	ldi	r25, 0xFF	; 255
     f4e:	89 16       	cp	r8, r25
     f50:	99 06       	cpc	r9, r25
     f52:	a9 06       	cpc	r10, r25
     f54:	b9 06       	cpc	r11, r25
     f56:	c1 f3       	breq	.-16     	; 0xf48 <usartConfig+0xd8>
     f58:	81 30       	cpi	r24, 0x01	; 1
     f5a:	c1 f2       	breq	.-80     	; 0xf0c <usartConfig+0x9c>
     f5c:	08 f4       	brcc	.+2      	; 0xf60 <usartConfig+0xf0>
     f5e:	bc cf       	rjmp	.-136    	; 0xed8 <usartConfig+0x68>
     f60:	84 30       	cpi	r24, 0x04	; 4
     f62:	29 f4       	brne	.+10     	; 0xf6e <usartConfig+0xfe>
     f64:	60 e8       	ldi	r22, 0x80	; 128
     f66:	76 e9       	ldi	r23, 0x96	; 150
     f68:	88 e9       	ldi	r24, 0x98	; 152
     f6a:	90 e0       	ldi	r25, 0x00	; 0
     f6c:	b9 cf       	rjmp	.-142    	; 0xee0 <usartConfig+0x70>
     f6e:	81 2c       	mov	r8, r1
     f70:	91 2c       	mov	r9, r1
     f72:	a1 2c       	mov	r10, r1
     f74:	b1 2c       	mov	r11, r1
     f76:	c1 2c       	mov	r12, r1
     f78:	d1 2c       	mov	r13, r1
     f7a:	e1 2c       	mov	r14, r1
     f7c:	f1 2c       	mov	r15, r1
     f7e:	d8 cf       	rjmp	.-80     	; 0xf30 <usartConfig+0xc0>
     f80:	87 e0       	ldi	r24, 0x07	; 7
     f82:	0f 91       	pop	r16
     f84:	ff 90       	pop	r15
     f86:	ef 90       	pop	r14
     f88:	df 90       	pop	r13
     f8a:	cf 90       	pop	r12
     f8c:	bf 90       	pop	r11
     f8e:	af 90       	pop	r10
     f90:	9f 90       	pop	r9
     f92:	8f 90       	pop	r8
     f94:	08 95       	ret
     f96:	85 e0       	ldi	r24, 0x05	; 5
     f98:	f4 cf       	rjmp	.-24     	; 0xf82 <usartConfig+0x112>
     f9a:	9f ef       	ldi	r25, 0xFF	; 255
     f9c:	89 16       	cp	r8, r25
     f9e:	99 06       	cpc	r9, r25
     fa0:	a9 06       	cpc	r10, r25
     fa2:	b9 06       	cpc	r11, r25
     fa4:	f9 f6       	brne	.-66     	; 0xf64 <usartConfig+0xf4>
     fa6:	d0 cf       	rjmp	.-96     	; 0xf48 <usartConfig+0xd8>

00000fa8 <usartEnableReceiver>:
     fa8:	e1 ec       	ldi	r30, 0xC1	; 193
     faa:	f0 e0       	ldi	r31, 0x00	; 0
     fac:	80 81       	ld	r24, Z
     fae:	80 61       	ori	r24, 0x10	; 16
     fb0:	80 83       	st	Z, r24
     fb2:	80 e0       	ldi	r24, 0x00	; 0
     fb4:	08 95       	ret

00000fb6 <usartDisableReceiver>:
     fb6:	e1 ec       	ldi	r30, 0xC1	; 193
     fb8:	f0 e0       	ldi	r31, 0x00	; 0
     fba:	80 81       	ld	r24, Z
     fbc:	8f 7e       	andi	r24, 0xEF	; 239
     fbe:	80 83       	st	Z, r24
     fc0:	80 e0       	ldi	r24, 0x00	; 0
     fc2:	08 95       	ret

00000fc4 <usartEnableTransmitter>:
     fc4:	e1 ec       	ldi	r30, 0xC1	; 193
     fc6:	f0 e0       	ldi	r31, 0x00	; 0
     fc8:	80 81       	ld	r24, Z
     fca:	88 60       	ori	r24, 0x08	; 8
     fcc:	80 83       	st	Z, r24
     fce:	80 e0       	ldi	r24, 0x00	; 0
     fd0:	08 95       	ret

00000fd2 <usartDisableTransmitter>:
     fd2:	e1 ec       	ldi	r30, 0xC1	; 193
     fd4:	f0 e0       	ldi	r31, 0x00	; 0
     fd6:	80 81       	ld	r24, Z
     fd8:	87 7f       	andi	r24, 0xF7	; 247
     fda:	80 83       	st	Z, r24
     fdc:	80 e0       	ldi	r24, 0x00	; 0
     fde:	08 95       	ret

00000fe0 <usartActivateReceptionCompleteInterrupt>:
     fe0:	e1 ec       	ldi	r30, 0xC1	; 193
     fe2:	f0 e0       	ldi	r31, 0x00	; 0
     fe4:	80 81       	ld	r24, Z
     fe6:	80 68       	ori	r24, 0x80	; 128
     fe8:	80 83       	st	Z, r24
     fea:	80 e0       	ldi	r24, 0x00	; 0
     fec:	08 95       	ret

00000fee <usartDeactivateReceptionCompleteInterrupt>:
     fee:	e1 ec       	ldi	r30, 0xC1	; 193
     ff0:	f0 e0       	ldi	r31, 0x00	; 0
     ff2:	80 81       	ld	r24, Z
     ff4:	8f 77       	andi	r24, 0x7F	; 127
     ff6:	80 83       	st	Z, r24
     ff8:	80 e0       	ldi	r24, 0x00	; 0
     ffa:	08 95       	ret

00000ffc <usartActivateTransmissionCompleteInterrupt>:
     ffc:	e1 ec       	ldi	r30, 0xC1	; 193
     ffe:	f0 e0       	ldi	r31, 0x00	; 0
    1000:	80 81       	ld	r24, Z
    1002:	80 64       	ori	r24, 0x40	; 64
    1004:	80 83       	st	Z, r24
    1006:	80 e0       	ldi	r24, 0x00	; 0
    1008:	08 95       	ret

0000100a <usartDeactivateTransmissionCompleteInterrupt>:
    100a:	e1 ec       	ldi	r30, 0xC1	; 193
    100c:	f0 e0       	ldi	r31, 0x00	; 0
    100e:	80 81       	ld	r24, Z
    1010:	8f 7b       	andi	r24, 0xBF	; 191
    1012:	80 83       	st	Z, r24
    1014:	80 e0       	ldi	r24, 0x00	; 0
    1016:	08 95       	ret

00001018 <usartActivateBufferEmptyInterrupt>:
    1018:	e1 ec       	ldi	r30, 0xC1	; 193
    101a:	f0 e0       	ldi	r31, 0x00	; 0
    101c:	80 81       	ld	r24, Z
    101e:	80 62       	ori	r24, 0x20	; 32
    1020:	80 83       	st	Z, r24
    1022:	80 e0       	ldi	r24, 0x00	; 0
    1024:	08 95       	ret

00001026 <usartDeactivateBufferEmptyInterrupt>:
    1026:	e1 ec       	ldi	r30, 0xC1	; 193
    1028:	f0 e0       	ldi	r31, 0x00	; 0
    102a:	80 81       	ld	r24, Z
    102c:	8f 7d       	andi	r24, 0xDF	; 223
    102e:	80 83       	st	Z, r24
    1030:	80 e0       	ldi	r24, 0x00	; 0
    1032:	08 95       	ret

00001034 <usartStdio>:
    1034:	e2 e8       	ldi	r30, 0x82	; 130
    1036:	f1 e0       	ldi	r31, 0x01	; 1
    1038:	80 e0       	ldi	r24, 0x00	; 0
    103a:	91 e0       	ldi	r25, 0x01	; 1
    103c:	95 83       	std	Z+5, r25	; 0x05
    103e:	84 83       	std	Z+4, r24	; 0x04
    1040:	93 83       	std	Z+3, r25	; 0x03
    1042:	82 83       	std	Z+2, r24	; 0x02
    1044:	91 83       	std	Z+1, r25	; 0x01
    1046:	80 83       	st	Z, r24
    1048:	80 e0       	ldi	r24, 0x00	; 0
    104a:	08 95       	ret

0000104c <usartIsReceptionComplete>:
    104c:	80 91 c0 00 	lds	r24, 0x00C0	; 0x8000c0 <__TEXT_REGION_LENGTH__+0x7e00c0>
    1050:	88 1f       	adc	r24, r24
    1052:	88 27       	eor	r24, r24
    1054:	88 1f       	adc	r24, r24
    1056:	08 95       	ret

00001058 <usartIsTransmissionComplete>:
    1058:	80 91 c0 00 	lds	r24, 0x00C0	; 0x8000c0 <__TEXT_REGION_LENGTH__+0x7e00c0>
    105c:	86 fb       	bst	r24, 6
    105e:	88 27       	eor	r24, r24
    1060:	80 f9       	bld	r24, 0
    1062:	08 95       	ret

00001064 <usartIsBufferEmpty>:
    1064:	80 91 c0 00 	lds	r24, 0x00C0	; 0x8000c0 <__TEXT_REGION_LENGTH__+0x7e00c0>
    1068:	85 fb       	bst	r24, 5
    106a:	88 27       	eor	r24, r24
    106c:	80 f9       	bld	r24, 0
    106e:	08 95       	ret

00001070 <usartTransmitStd>:
    1070:	cf 93       	push	r28
    1072:	c8 2f       	mov	r28, r24
    1074:	0e 94 32 08 	call	0x1064	; 0x1064 <usartIsBufferEmpty>
    1078:	88 23       	and	r24, r24
    107a:	e1 f3       	breq	.-8      	; 0x1074 <usartTransmitStd+0x4>
    107c:	c0 93 c6 00 	sts	0x00C6, r28	; 0x8000c6 <__TEXT_REGION_LENGTH__+0x7e00c6>
    1080:	80 e0       	ldi	r24, 0x00	; 0
    1082:	cf 91       	pop	r28
    1084:	08 95       	ret

00001086 <usartCheckError>:
    1086:	80 91 c0 00 	lds	r24, 0x00C0	; 0x8000c0 <__TEXT_REGION_LENGTH__+0x7e00c0>
    108a:	84 ff       	sbrs	r24, 4
    108c:	0b c0       	rjmp	.+22     	; 0x10a4 <usartCheckError+0x1e>
    108e:	82 e0       	ldi	r24, 0x02	; 2
    1090:	90 91 c0 00 	lds	r25, 0x00C0	; 0x8000c0 <__TEXT_REGION_LENGTH__+0x7e00c0>
    1094:	93 fd       	sbrc	r25, 3
    1096:	84 60       	ori	r24, 0x04	; 4
    1098:	90 91 c0 00 	lds	r25, 0x00C0	; 0x8000c0 <__TEXT_REGION_LENGTH__+0x7e00c0>
    109c:	92 ff       	sbrs	r25, 2
    109e:	04 c0       	rjmp	.+8      	; 0x10a8 <usartCheckError+0x22>
    10a0:	88 60       	ori	r24, 0x08	; 8
    10a2:	08 95       	ret
    10a4:	80 e0       	ldi	r24, 0x00	; 0
    10a6:	f4 cf       	rjmp	.-24     	; 0x1090 <usartCheckError+0xa>
    10a8:	81 11       	cpse	r24, r1
    10aa:	01 c0       	rjmp	.+2      	; 0x10ae <usartCheckError+0x28>
    10ac:	81 e0       	ldi	r24, 0x01	; 1
    10ae:	08 95       	ret

000010b0 <usartTransmit>:
    10b0:	cf 93       	push	r28
    10b2:	c8 2f       	mov	r28, r24
    10b4:	0e 94 32 08 	call	0x1064	; 0x1064 <usartIsBufferEmpty>
    10b8:	88 23       	and	r24, r24
    10ba:	e1 f3       	breq	.-8      	; 0x10b4 <usartTransmit+0x4>
    10bc:	c0 93 c6 00 	sts	0x00C6, r28	; 0x8000c6 <__TEXT_REGION_LENGTH__+0x7e00c6>
    10c0:	80 e0       	ldi	r24, 0x00	; 0
    10c2:	cf 91       	pop	r28
    10c4:	08 95       	ret

000010c6 <usartTransmit9bits>:
    10c6:	cf 93       	push	r28
    10c8:	df 93       	push	r29
    10ca:	ec 01       	movw	r28, r24
    10cc:	0e 94 32 08 	call	0x1064	; 0x1064 <usartIsBufferEmpty>
    10d0:	88 23       	and	r24, r24
    10d2:	e1 f3       	breq	.-8      	; 0x10cc <usartTransmit9bits+0x6>
    10d4:	80 91 c1 00 	lds	r24, 0x00C1	; 0x8000c1 <__TEXT_REGION_LENGTH__+0x7e00c1>
    10d8:	d0 ff       	sbrs	r29, 0
    10da:	09 c0       	rjmp	.+18     	; 0x10ee <usartTransmit9bits+0x28>
    10dc:	81 60       	ori	r24, 0x01	; 1
    10de:	80 93 c1 00 	sts	0x00C1, r24	; 0x8000c1 <__TEXT_REGION_LENGTH__+0x7e00c1>
    10e2:	c0 93 c6 00 	sts	0x00C6, r28	; 0x8000c6 <__TEXT_REGION_LENGTH__+0x7e00c6>
    10e6:	80 e0       	ldi	r24, 0x00	; 0
    10e8:	df 91       	pop	r29
    10ea:	cf 91       	pop	r28
    10ec:	08 95       	ret
    10ee:	8e 7f       	andi	r24, 0xFE	; 254
    10f0:	f6 cf       	rjmp	.-20     	; 0x10de <usartTransmit9bits+0x18>

000010f2 <usartReceive>:
    10f2:	80 91 c0 00 	lds	r24, 0x00C0	; 0x8000c0 <__TEXT_REGION_LENGTH__+0x7e00c0>
    10f6:	87 ff       	sbrs	r24, 7
    10f8:	fc cf       	rjmp	.-8      	; 0x10f2 <usartReceive>
    10fa:	80 91 c0 00 	lds	r24, 0x00C0	; 0x8000c0 <__TEXT_REGION_LENGTH__+0x7e00c0>
    10fe:	80 91 c6 00 	lds	r24, 0x00C6	; 0x8000c6 <__TEXT_REGION_LENGTH__+0x7e00c6>
    1102:	08 95       	ret

00001104 <usartReceive9bits>:
    1104:	80 91 c0 00 	lds	r24, 0x00C0	; 0x8000c0 <__TEXT_REGION_LENGTH__+0x7e00c0>
    1108:	87 ff       	sbrs	r24, 7
    110a:	fc cf       	rjmp	.-8      	; 0x1104 <usartReceive9bits>
    110c:	80 91 c0 00 	lds	r24, 0x00C0	; 0x8000c0 <__TEXT_REGION_LENGTH__+0x7e00c0>
    1110:	80 91 c1 00 	lds	r24, 0x00C1	; 0x8000c1 <__TEXT_REGION_LENGTH__+0x7e00c1>
    1114:	20 91 c6 00 	lds	r18, 0x00C6	; 0x8000c6 <__TEXT_REGION_LENGTH__+0x7e00c6>
    1118:	30 e8       	ldi	r19, 0x80	; 128
    111a:	83 9f       	mul	r24, r19
    111c:	c0 01       	movw	r24, r0
    111e:	11 24       	eor	r1, r1
    1120:	88 27       	eor	r24, r24
    1122:	91 70       	andi	r25, 0x01	; 1
    1124:	82 2b       	or	r24, r18
    1126:	08 95       	ret

00001128 <usartClearReceptionBuffer>:
    1128:	80 91 c0 00 	lds	r24, 0x00C0	; 0x8000c0 <__TEXT_REGION_LENGTH__+0x7e00c0>
    112c:	87 ff       	sbrs	r24, 7
    112e:	08 95       	ret
    1130:	80 91 c6 00 	lds	r24, 0x00C6	; 0x8000c6 <__TEXT_REGION_LENGTH__+0x7e00c6>
    1134:	f9 cf       	rjmp	.-14     	; 0x1128 <usartClearReceptionBuffer>

00001136 <usartAddDataToReceiverBuffer>:
    1136:	cf 92       	push	r12
    1138:	df 92       	push	r13
    113a:	ef 92       	push	r14
    113c:	ff 92       	push	r15
    113e:	1f 93       	push	r17
    1140:	cf 93       	push	r28
    1142:	df 93       	push	r29
    1144:	18 2f       	mov	r17, r24
    1146:	c0 91 72 01 	lds	r28, 0x0172	; 0x800172 <usartReceiverBufferNextWrite>
    114a:	d0 e0       	ldi	r29, 0x00	; 0
    114c:	be 01       	movw	r22, r28
    114e:	6f 5f       	subi	r22, 0xFF	; 255
    1150:	7f 4f       	sbci	r23, 0xFF	; 255
    1152:	07 2e       	mov	r0, r23
    1154:	00 0c       	add	r0, r0
    1156:	88 0b       	sbc	r24, r24
    1158:	99 0b       	sbc	r25, r25
    115a:	22 e3       	ldi	r18, 0x32	; 50
    115c:	30 e0       	ldi	r19, 0x00	; 0
    115e:	40 e0       	ldi	r20, 0x00	; 0
    1160:	50 e0       	ldi	r21, 0x00	; 0
    1162:	0e 94 f9 0d 	call	0x1bf2	; 0x1bf2 <__udivmodsi4>
    1166:	20 91 74 01 	lds	r18, 0x0174	; 0x800174 <usartReceiverBufferNextRead>
    116a:	c2 2e       	mov	r12, r18
    116c:	d1 2c       	mov	r13, r1
    116e:	e1 2c       	mov	r14, r1
    1170:	f1 2c       	mov	r15, r1
    1172:	6c 15       	cp	r22, r12
    1174:	7d 05       	cpc	r23, r13
    1176:	8e 05       	cpc	r24, r14
    1178:	9f 05       	cpc	r25, r15
    117a:	51 f0       	breq	.+20     	; 0x1190 <usartAddDataToReceiverBuffer+0x5a>
    117c:	c0 5c       	subi	r28, 0xC0	; 192
    117e:	de 4f       	sbci	r29, 0xFE	; 254
    1180:	18 83       	st	Y, r17
    1182:	60 93 72 01 	sts	0x0172, r22	; 0x800172 <usartReceiverBufferNextWrite>
    1186:	80 91 73 01 	lds	r24, 0x0173	; 0x800173 <usartReceiverBufferLength>
    118a:	8f 5f       	subi	r24, 0xFF	; 255
    118c:	80 93 73 01 	sts	0x0173, r24	; 0x800173 <usartReceiverBufferLength>
    1190:	df 91       	pop	r29
    1192:	cf 91       	pop	r28
    1194:	1f 91       	pop	r17
    1196:	ff 90       	pop	r15
    1198:	ef 90       	pop	r14
    119a:	df 90       	pop	r13
    119c:	cf 90       	pop	r12
    119e:	08 95       	ret

000011a0 <usartGetDataFromReceiverBuffer>:
    11a0:	cf 93       	push	r28
    11a2:	df 93       	push	r29
    11a4:	60 91 74 01 	lds	r22, 0x0174	; 0x800174 <usartReceiverBufferNextRead>
    11a8:	70 e0       	ldi	r23, 0x00	; 0
    11aa:	fb 01       	movw	r30, r22
    11ac:	e0 5c       	subi	r30, 0xC0	; 192
    11ae:	fe 4f       	sbci	r31, 0xFE	; 254
    11b0:	d0 81       	ld	r29, Z
    11b2:	c0 91 73 01 	lds	r28, 0x0173	; 0x800173 <usartReceiverBufferLength>
    11b6:	cc 23       	and	r28, r28
    11b8:	89 f0       	breq	.+34     	; 0x11dc <usartGetDataFromReceiverBuffer+0x3c>
    11ba:	6f 5f       	subi	r22, 0xFF	; 255
    11bc:	7f 4f       	sbci	r23, 0xFF	; 255
    11be:	07 2e       	mov	r0, r23
    11c0:	00 0c       	add	r0, r0
    11c2:	88 0b       	sbc	r24, r24
    11c4:	99 0b       	sbc	r25, r25
    11c6:	22 e3       	ldi	r18, 0x32	; 50
    11c8:	30 e0       	ldi	r19, 0x00	; 0
    11ca:	40 e0       	ldi	r20, 0x00	; 0
    11cc:	50 e0       	ldi	r21, 0x00	; 0
    11ce:	0e 94 f9 0d 	call	0x1bf2	; 0x1bf2 <__udivmodsi4>
    11d2:	60 93 74 01 	sts	0x0174, r22	; 0x800174 <usartReceiverBufferNextRead>
    11d6:	c1 50       	subi	r28, 0x01	; 1
    11d8:	c0 93 73 01 	sts	0x0173, r28	; 0x800173 <usartReceiverBufferLength>
    11dc:	8d 2f       	mov	r24, r29
    11de:	df 91       	pop	r29
    11e0:	cf 91       	pop	r28
    11e2:	08 95       	ret

000011e4 <usartIsReceiverBufferEmpty>:
    11e4:	81 e0       	ldi	r24, 0x01	; 1
    11e6:	90 91 73 01 	lds	r25, 0x0173	; 0x800173 <usartReceiverBufferLength>
    11ea:	91 11       	cpse	r25, r1
    11ec:	80 e0       	ldi	r24, 0x00	; 0
    11ee:	08 95       	ret

000011f0 <usartGetCurrentBaudRate>:
    11f0:	60 e0       	ldi	r22, 0x00	; 0
    11f2:	70 e0       	ldi	r23, 0x00	; 0
    11f4:	cb 01       	movw	r24, r22
    11f6:	08 95       	ret

000011f8 <spiInit>:
    11f8:	08 95       	ret

000011fa <spiMasterTransmit>:
    11fa:	8e bd       	out	0x2e, r24	; 46
    11fc:	0d b4       	in	r0, 0x2d	; 45
    11fe:	07 fc       	sbrc	r0, 7
    1200:	fd cf       	rjmp	.-6      	; 0x11fc <spiMasterTransmit+0x2>
    1202:	8e b5       	in	r24, 0x2e	; 46
    1204:	08 95       	ret

00001206 <spiSlaveTransmit>:
    1206:	0d b4       	in	r0, 0x2d	; 45
    1208:	07 fc       	sbrc	r0, 7
    120a:	fd cf       	rjmp	.-6      	; 0x1206 <spiSlaveTransmit>
    120c:	8e b5       	in	r24, 0x2e	; 46
    120e:	08 95       	ret

00001210 <update_reg_value>:
    1210:	9c 01       	movw	r18, r24
    1212:	cb 01       	movw	r24, r22
    1214:	82 1b       	sub	r24, r18
    1216:	93 0b       	sbc	r25, r19
    1218:	64 e6       	ldi	r22, 0x64	; 100
    121a:	70 e0       	ldi	r23, 0x00	; 0
    121c:	0e 94 e5 0d 	call	0x1bca	; 0x1bca <__udivmodhi4>
    1220:	46 9f       	mul	r20, r22
    1222:	c0 01       	movw	r24, r0
    1224:	47 9f       	mul	r20, r23
    1226:	90 0d       	add	r25, r0
    1228:	11 24       	eor	r1, r1
    122a:	28 0f       	add	r18, r24
    122c:	39 1f       	adc	r19, r25
    122e:	c9 01       	movw	r24, r18
    1230:	88 0f       	add	r24, r24
    1232:	99 1f       	adc	r25, r25
    1234:	36 95       	lsr	r19
    1236:	27 95       	ror	r18
    1238:	82 0f       	add	r24, r18
    123a:	93 1f       	adc	r25, r19
    123c:	08 95       	ret

0000123e <__vector_18>:
    123e:	1f 92       	push	r1
    1240:	0f 92       	push	r0
    1242:	0f b6       	in	r0, 0x3f	; 63
    1244:	0f 92       	push	r0
    1246:	11 24       	eor	r1, r1
    1248:	2f 93       	push	r18
    124a:	3f 93       	push	r19
    124c:	4f 93       	push	r20
    124e:	5f 93       	push	r21
    1250:	6f 93       	push	r22
    1252:	7f 93       	push	r23
    1254:	8f 93       	push	r24
    1256:	9f 93       	push	r25
    1258:	af 93       	push	r26
    125a:	bf 93       	push	r27
    125c:	ef 93       	push	r30
    125e:	ff 93       	push	r31
    1260:	0e 94 79 08 	call	0x10f2	; 0x10f2 <usartReceive>
    1264:	0e 94 9b 08 	call	0x1136	; 0x1136 <usartAddDataToReceiverBuffer>
    1268:	ff 91       	pop	r31
    126a:	ef 91       	pop	r30
    126c:	bf 91       	pop	r27
    126e:	af 91       	pop	r26
    1270:	9f 91       	pop	r25
    1272:	8f 91       	pop	r24
    1274:	7f 91       	pop	r23
    1276:	6f 91       	pop	r22
    1278:	5f 91       	pop	r21
    127a:	4f 91       	pop	r20
    127c:	3f 91       	pop	r19
    127e:	2f 91       	pop	r18
    1280:	0f 90       	pop	r0
    1282:	0f be       	out	0x3f, r0	; 63
    1284:	0f 90       	pop	r0
    1286:	1f 90       	pop	r1
    1288:	18 95       	reti

0000128a <__vector_21>:
    128a:	1f 92       	push	r1
    128c:	0f 92       	push	r0
    128e:	0f b6       	in	r0, 0x3f	; 63
    1290:	0f 92       	push	r0
    1292:	11 24       	eor	r1, r1
    1294:	8f 93       	push	r24
    1296:	9f 93       	push	r25
    1298:	80 91 80 01 	lds	r24, 0x0180	; 0x800180 <ctrlAdc>
    129c:	8f 5f       	subi	r24, 0xFF	; 255
    129e:	98 2f       	mov	r25, r24
    12a0:	97 70       	andi	r25, 0x07	; 7
    12a2:	80 91 80 01 	lds	r24, 0x0180	; 0x800180 <ctrlAdc>
    12a6:	88 7f       	andi	r24, 0xF8	; 248
    12a8:	89 2b       	or	r24, r25
    12aa:	80 93 80 01 	sts	0x0180, r24	; 0x800180 <ctrlAdc>
    12ae:	80 91 78 00 	lds	r24, 0x0078	; 0x800078 <__TEXT_REGION_LENGTH__+0x7e0078>
    12b2:	90 91 79 00 	lds	r25, 0x0079	; 0x800079 <__TEXT_REGION_LENGTH__+0x7e0079>
    12b6:	90 93 7f 01 	sts	0x017F, r25	; 0x80017f <adcCurrent+0x1>
    12ba:	80 93 7e 01 	sts	0x017E, r24	; 0x80017e <adcCurrent>
    12be:	a8 9a       	sbi	0x15, 0	; 21
    12c0:	9f 91       	pop	r25
    12c2:	8f 91       	pop	r24
    12c4:	0f 90       	pop	r0
    12c6:	0f be       	out	0x3f, r0	; 63
    12c8:	0f 90       	pop	r0
    12ca:	1f 90       	pop	r1
    12cc:	18 95       	reti

000012ce <__vector_12>:
    12ce:	1f 92       	push	r1
    12d0:	0f 92       	push	r0
    12d2:	0f b6       	in	r0, 0x3f	; 63
    12d4:	0f 92       	push	r0
    12d6:	11 24       	eor	r1, r1
    12d8:	2f 93       	push	r18
    12da:	3f 93       	push	r19
    12dc:	4f 93       	push	r20
    12de:	5f 93       	push	r21
    12e0:	6f 93       	push	r22
    12e2:	7f 93       	push	r23
    12e4:	8f 93       	push	r24
    12e6:	9f 93       	push	r25
    12e8:	af 93       	push	r26
    12ea:	bf 93       	push	r27
    12ec:	ef 93       	push	r30
    12ee:	ff 93       	push	r31
    12f0:	80 91 7d 01 	lds	r24, 0x017D	; 0x80017d <ctrlPwm>
    12f4:	80 ff       	sbrs	r24, 0
    12f6:	23 c0       	rjmp	.+70     	; 0x133e <__vector_12+0x70>
    12f8:	4d 99       	sbic	0x09, 5	; 9
    12fa:	18 c0       	rjmp	.+48     	; 0x132c <__vector_12+0x5e>
    12fc:	5d 9a       	sbi	0x0b, 5	; 11
    12fe:	80 91 75 01 	lds	r24, 0x0175	; 0x800175 <pwmRegValue>
    1302:	90 91 76 01 	lds	r25, 0x0176	; 0x800176 <pwmRegValue+0x1>
    1306:	0e 94 f1 05 	call	0xbe2	; 0xbe2 <timer1SetCompareBValue>
    130a:	ff 91       	pop	r31
    130c:	ef 91       	pop	r30
    130e:	bf 91       	pop	r27
    1310:	af 91       	pop	r26
    1312:	9f 91       	pop	r25
    1314:	8f 91       	pop	r24
    1316:	7f 91       	pop	r23
    1318:	6f 91       	pop	r22
    131a:	5f 91       	pop	r21
    131c:	4f 91       	pop	r20
    131e:	3f 91       	pop	r19
    1320:	2f 91       	pop	r18
    1322:	0f 90       	pop	r0
    1324:	0f be       	out	0x3f, r0	; 63
    1326:	0f 90       	pop	r0
    1328:	1f 90       	pop	r1
    132a:	18 95       	reti
    132c:	5d 98       	cbi	0x0b, 5	; 11
    132e:	80 91 7d 01 	lds	r24, 0x017D	; 0x80017d <ctrlPwm>
    1332:	88 0f       	add	r24, r24
    1334:	80 93 7d 01 	sts	0x017D, r24	; 0x80017d <ctrlPwm>
    1338:	8c e6       	ldi	r24, 0x6C	; 108
    133a:	9b e6       	ldi	r25, 0x6B	; 107
    133c:	e4 cf       	rjmp	.-56     	; 0x1306 <__vector_12+0x38>
    133e:	80 91 7d 01 	lds	r24, 0x017D	; 0x80017d <ctrlPwm>
    1342:	81 ff       	sbrs	r24, 1
    1344:	e2 cf       	rjmp	.-60     	; 0x130a <__vector_12+0x3c>
    1346:	4e 99       	sbic	0x09, 6	; 9
    1348:	06 c0       	rjmp	.+12     	; 0x1356 <__vector_12+0x88>
    134a:	5e 9a       	sbi	0x0b, 6	; 11
    134c:	80 91 77 01 	lds	r24, 0x0177	; 0x800177 <pwmRegValue+0x2>
    1350:	90 91 78 01 	lds	r25, 0x0178	; 0x800178 <pwmRegValue+0x3>
    1354:	d8 cf       	rjmp	.-80     	; 0x1306 <__vector_12+0x38>
    1356:	5e 98       	cbi	0x0b, 6	; 11
    1358:	81 e0       	ldi	r24, 0x01	; 1
    135a:	80 93 7d 01 	sts	0x017D, r24	; 0x80017d <ctrlPwm>
    135e:	84 ec       	ldi	r24, 0xC4	; 196
    1360:	99 e0       	ldi	r25, 0x09	; 9
    1362:	d1 cf       	rjmp	.-94     	; 0x1306 <__vector_12+0x38>

00001364 <__vector_9>:
    1364:	1f 92       	push	r1
    1366:	0f 92       	push	r0
    1368:	0f b6       	in	r0, 0x3f	; 63
    136a:	0f 92       	push	r0
    136c:	11 24       	eor	r1, r1
    136e:	8f 93       	push	r24
    1370:	81 e0       	ldi	r24, 0x01	; 1
    1372:	80 93 81 01 	sts	0x0181, r24	; 0x800181 <receiveWd>
    1376:	8f 91       	pop	r24
    1378:	0f 90       	pop	r0
    137a:	0f be       	out	0x3f, r0	; 63
    137c:	0f 90       	pop	r0
    137e:	1f 90       	pop	r1
    1380:	18 95       	reti

00001382 <receivePackageData>:
    1382:	9f 92       	push	r9
    1384:	af 92       	push	r10
    1386:	bf 92       	push	r11
    1388:	cf 92       	push	r12
    138a:	df 92       	push	r13
    138c:	ef 92       	push	r14
    138e:	ff 92       	push	r15
    1390:	0f 93       	push	r16
    1392:	1f 93       	push	r17
    1394:	cf 93       	push	r28
    1396:	df 93       	push	r29
    1398:	ec 01       	movw	r28, r24
    139a:	6b 01       	movw	r12, r22
    139c:	8a 01       	movw	r16, r20
    139e:	79 01       	movw	r14, r18
    13a0:	aa 24       	eor	r10, r10
    13a2:	a3 94       	inc	r10
    13a4:	0e 94 f2 08 	call	0x11e4	; 0x11e4 <usartIsReceiverBufferEmpty>
    13a8:	98 2e       	mov	r9, r24
    13aa:	88 23       	and	r24, r24
    13ac:	61 f0       	breq	.+24     	; 0x13c6 <receivePackageData+0x44>
    13ae:	df 91       	pop	r29
    13b0:	cf 91       	pop	r28
    13b2:	1f 91       	pop	r17
    13b4:	0f 91       	pop	r16
    13b6:	ff 90       	pop	r15
    13b8:	ef 90       	pop	r14
    13ba:	df 90       	pop	r13
    13bc:	cf 90       	pop	r12
    13be:	bf 90       	pop	r11
    13c0:	af 90       	pop	r10
    13c2:	9f 90       	pop	r9
    13c4:	08 95       	ret
    13c6:	0e 94 d0 08 	call	0x11a0	; 0x11a0 <usartGetDataFromReceiverBuffer>
    13ca:	b8 2e       	mov	r11, r24
    13cc:	67 e0       	ldi	r22, 0x07	; 7
    13ce:	8f ef       	ldi	r24, 0xFF	; 255
    13d0:	0e 94 0f 06 	call	0xc1e	; 0xc1e <timer2Config>
    13d4:	88 81       	ld	r24, Y
    13d6:	88 23       	and	r24, r24
    13d8:	11 f1       	breq	.+68     	; 0x141e <receivePackageData+0x9c>
    13da:	81 30       	cpi	r24, 0x01	; 1
    13dc:	49 f1       	breq	.+82     	; 0x1430 <receivePackageData+0xae>
    13de:	80 e0       	ldi	r24, 0x00	; 0
    13e0:	0e 94 7e 06 	call	0xcfc	; 0xcfc <timer2SetCounterValue>
    13e4:	88 81       	ld	r24, Y
    13e6:	90 e0       	ldi	r25, 0x00	; 0
    13e8:	f8 01       	movw	r30, r16
    13ea:	20 81       	ld	r18, Z
    13ec:	30 e0       	ldi	r19, 0x00	; 0
    13ee:	2f 5f       	subi	r18, 0xFF	; 255
    13f0:	3f 4f       	sbci	r19, 0xFF	; 255
    13f2:	28 17       	cp	r18, r24
    13f4:	39 07       	cpc	r19, r25
    13f6:	2c f5       	brge	.+74     	; 0x1442 <receivePackageData+0xc0>
    13f8:	02 97       	sbiw	r24, 0x02	; 2
    13fa:	29 2d       	mov	r18, r9
    13fc:	30 e0       	ldi	r19, 0x00	; 0
    13fe:	28 17       	cp	r18, r24
    1400:	39 07       	cpc	r19, r25
    1402:	24 f1       	brlt	.+72     	; 0x144c <receivePackageData+0xca>
    1404:	ff ef       	ldi	r31, 0xFF	; 255
    1406:	bf 16       	cp	r11, r31
    1408:	41 f1       	breq	.+80     	; 0x145a <receivePackageData+0xd8>
    140a:	8e e0       	ldi	r24, 0x0E	; 14
    140c:	91 e0       	ldi	r25, 0x01	; 1
    140e:	0e 94 55 0e 	call	0x1caa	; 0x1caa <puts>
    1412:	f7 01       	movw	r30, r14
    1414:	10 82       	st	Z, r1
    1416:	18 82       	st	Y, r1
    1418:	f8 01       	movw	r30, r16
    141a:	10 82       	st	Z, r1
    141c:	c3 cf       	rjmp	.-122    	; 0x13a4 <receivePackageData+0x22>
    141e:	8e e7       	ldi	r24, 0x7E	; 126
    1420:	b8 12       	cpse	r11, r24
    1422:	c0 cf       	rjmp	.-128    	; 0x13a4 <receivePackageData+0x22>
    1424:	a8 82       	st	Y, r10
    1426:	80 e0       	ldi	r24, 0x00	; 0
    1428:	0e 94 7e 06 	call	0xcfc	; 0xcfc <timer2SetCounterValue>
    142c:	28 9a       	sbi	0x05, 0	; 5
    142e:	ba cf       	rjmp	.-140    	; 0x13a4 <receivePackageData+0x22>
    1430:	80 e0       	ldi	r24, 0x00	; 0
    1432:	0e 94 7e 06 	call	0xcfc	; 0xcfc <timer2SetCounterValue>
    1436:	f8 01       	movw	r30, r16
    1438:	b0 82       	st	Z, r11
    143a:	88 81       	ld	r24, Y
    143c:	8f 5f       	subi	r24, 0xFF	; 255
    143e:	88 83       	st	Y, r24
    1440:	b1 cf       	rjmp	.-158    	; 0x13a4 <receivePackageData+0x22>
    1442:	8c 0d       	add	r24, r12
    1444:	9d 1d       	adc	r25, r13
    1446:	fc 01       	movw	r30, r24
    1448:	32 97       	sbiw	r30, 0x02	; 2
    144a:	f6 cf       	rjmp	.-20     	; 0x1438 <receivePackageData+0xb6>
    144c:	2c 0d       	add	r18, r12
    144e:	3d 1d       	adc	r19, r13
    1450:	f9 01       	movw	r30, r18
    1452:	20 81       	ld	r18, Z
    1454:	b2 0e       	add	r11, r18
    1456:	93 94       	inc	r9
    1458:	d0 cf       	rjmp	.-96     	; 0x13fa <receivePackageData+0x78>
    145a:	f7 01       	movw	r30, r14
    145c:	a0 82       	st	Z, r10
    145e:	18 82       	st	Y, r1
    1460:	60 e0       	ldi	r22, 0x00	; 0
    1462:	8f ef       	ldi	r24, 0xFF	; 255
    1464:	0e 94 0f 06 	call	0xc1e	; 0xc1e <timer2Config>
    1468:	80 e0       	ldi	r24, 0x00	; 0
    146a:	0e 94 7e 06 	call	0xcfc	; 0xcfc <timer2SetCounterValue>
    146e:	9a cf       	rjmp	.-204    	; 0x13a4 <receivePackageData+0x22>

00001470 <buildTransmitPackageData>:
    1470:	cf 93       	push	r28
    1472:	df 93       	push	r29
    1474:	fc 01       	movw	r30, r24
    1476:	8e e7       	ldi	r24, 0x7E	; 126
    1478:	80 83       	st	Z, r24
    147a:	db 01       	movw	r26, r22
    147c:	8d 91       	ld	r24, X+
    147e:	81 58       	subi	r24, 0x81	; 129
    1480:	82 83       	std	Z+2, r24	; 0x02
    1482:	93 e0       	ldi	r25, 0x03	; 3
    1484:	3e ef       	ldi	r19, 0xFE	; 254
    1486:	39 0f       	add	r19, r25
    1488:	34 17       	cp	r19, r20
    148a:	88 f0       	brcs	.+34     	; 0x14ae <buildTransmitPackageData+0x3e>
    148c:	df 01       	movw	r26, r30
    148e:	12 96       	adiw	r26, 0x02	; 2
    1490:	8f ef       	ldi	r24, 0xFF	; 255
    1492:	22 e0       	ldi	r18, 0x02	; 2
    1494:	29 17       	cp	r18, r25
    1496:	90 f0       	brcs	.+36     	; 0x14bc <buildTransmitPackageData+0x4c>
    1498:	df 01       	movw	r26, r30
    149a:	a9 0f       	add	r26, r25
    149c:	b1 1d       	adc	r27, r1
    149e:	8e 57       	subi	r24, 0x7E	; 126
    14a0:	8c 93       	st	X, r24
    14a2:	31 83       	std	Z+1, r19	; 0x01
    14a4:	81 e0       	ldi	r24, 0x01	; 1
    14a6:	89 0f       	add	r24, r25
    14a8:	df 91       	pop	r29
    14aa:	cf 91       	pop	r28
    14ac:	08 95       	ret
    14ae:	8d 91       	ld	r24, X+
    14b0:	ef 01       	movw	r28, r30
    14b2:	c9 0f       	add	r28, r25
    14b4:	d1 1d       	adc	r29, r1
    14b6:	88 83       	st	Y, r24
    14b8:	9f 5f       	subi	r25, 0xFF	; 255
    14ba:	e4 cf       	rjmp	.-56     	; 0x1484 <buildTransmitPackageData+0x14>
    14bc:	4d 91       	ld	r20, X+
    14be:	84 1b       	sub	r24, r20
    14c0:	2f 5f       	subi	r18, 0xFF	; 255
    14c2:	e8 cf       	rjmp	.-48     	; 0x1494 <buildTransmitPackageData+0x24>

000014c4 <main>:
    14c4:	cf 93       	push	r28
    14c6:	df 93       	push	r29
    14c8:	cd b7       	in	r28, 0x3d	; 61
    14ca:	de b7       	in	r29, 0x3e	; 62
    14cc:	cc 51       	subi	r28, 0x1C	; 28
    14ce:	d1 40       	sbci	r29, 0x01	; 1
    14d0:	0f b6       	in	r0, 0x3f	; 63
    14d2:	f8 94       	cli
    14d4:	de bf       	out	0x3e, r29	; 62
    14d6:	0f be       	out	0x3f, r0	; 63
    14d8:	cd bf       	out	0x3d, r28	; 61
    14da:	cb 5f       	subi	r28, 0xFB	; 251
    14dc:	de 4f       	sbci	r29, 0xFE	; 254
    14de:	18 82       	st	Y, r1
    14e0:	c5 50       	subi	r28, 0x05	; 5
    14e2:	d1 40       	sbci	r29, 0x01	; 1
    14e4:	cc 5f       	subi	r28, 0xFC	; 252
    14e6:	de 4f       	sbci	r29, 0xFE	; 254
    14e8:	18 82       	st	Y, r1
    14ea:	c4 50       	subi	r28, 0x04	; 4
    14ec:	d1 40       	sbci	r29, 0x01	; 1
    14ee:	cd 5f       	subi	r28, 0xFD	; 253
    14f0:	de 4f       	sbci	r29, 0xFE	; 254
    14f2:	18 82       	st	Y, r1
    14f4:	c3 50       	subi	r28, 0x03	; 3
    14f6:	d1 40       	sbci	r29, 0x01	; 1
    14f8:	80 e4       	ldi	r24, 0x40	; 64
    14fa:	9e 01       	movw	r18, r28
    14fc:	2f 5f       	subi	r18, 0xFF	; 255
    14fe:	3f 4f       	sbci	r19, 0xFF	; 255
    1500:	69 01       	movw	r12, r18
    1502:	d9 01       	movw	r26, r18
    1504:	e8 2f       	mov	r30, r24
    1506:	1d 92       	st	X+, r1
    1508:	ea 95       	dec	r30
    150a:	e9 f7       	brne	.-6      	; 0x1506 <main+0x42>
    150c:	fe 01       	movw	r30, r28
    150e:	ef 5b       	subi	r30, 0xBF	; 191
    1510:	ff 4f       	sbci	r31, 0xFF	; 255
    1512:	df 01       	movw	r26, r30
    1514:	1d 92       	st	X+, r1
    1516:	8a 95       	dec	r24
    1518:	e9 f7       	brne	.-6      	; 0x1514 <main+0x50>
    151a:	cf 5f       	subi	r28, 0xFF	; 255
    151c:	de 4f       	sbci	r29, 0xFE	; 254
    151e:	19 82       	std	Y+1, r1	; 0x01
    1520:	18 82       	st	Y, r1
    1522:	c1 50       	subi	r28, 0x01	; 1
    1524:	d1 40       	sbci	r29, 0x01	; 1
    1526:	c7 50       	subi	r28, 0x07	; 7
    1528:	df 4f       	sbci	r29, 0xFF	; 255
    152a:	19 82       	std	Y+1, r1	; 0x01
    152c:	18 82       	st	Y, r1
    152e:	c9 5f       	subi	r28, 0xF9	; 249
    1530:	d0 40       	sbci	r29, 0x00	; 0
    1532:	cb 50       	subi	r28, 0x0B	; 11
    1534:	df 4f       	sbci	r29, 0xFF	; 255
    1536:	19 82       	std	Y+1, r1	; 0x01
    1538:	18 82       	st	Y, r1
    153a:	c5 5f       	subi	r28, 0xF5	; 245
    153c:	d0 40       	sbci	r29, 0x00	; 0
    153e:	10 92 7d 01 	sts	0x017D, r1	; 0x80017d <ctrlPwm>
    1542:	80 91 7d 01 	lds	r24, 0x017D	; 0x80017d <ctrlPwm>
    1546:	81 60       	ori	r24, 0x01	; 1
    1548:	80 93 7d 01 	sts	0x017D, r24	; 0x80017d <ctrlPwm>
    154c:	44 e8       	ldi	r20, 0x84	; 132
    154e:	53 e0       	ldi	r21, 0x03	; 3
    1550:	c3 51       	subi	r28, 0x13	; 19
    1552:	df 4f       	sbci	r29, 0xFF	; 255
    1554:	59 83       	std	Y+1, r21	; 0x01
    1556:	48 83       	st	Y, r20
    1558:	cd 5e       	subi	r28, 0xED	; 237
    155a:	d0 40       	sbci	r29, 0x00	; 0
    155c:	4e 01       	movw	r8, r28
    155e:	b5 ee       	ldi	r27, 0xE5	; 229
    1560:	8b 0e       	add	r8, r27
    1562:	91 1c       	adc	r9, r1
    1564:	24 e3       	ldi	r18, 0x34	; 52
    1566:	38 e0       	ldi	r19, 0x08	; 8
    1568:	f4 01       	movw	r30, r8
    156a:	31 83       	std	Z+1, r19	; 0x01
    156c:	20 83       	st	Z, r18
    156e:	5e 01       	movw	r10, r28
    1570:	fd ef       	ldi	r31, 0xFD	; 253
    1572:	af 0e       	add	r10, r31
    1574:	b1 1c       	adc	r11, r1
    1576:	82 e3       	ldi	r24, 0x32	; 50
    1578:	d5 01       	movw	r26, r10
    157a:	8c 93       	st	X, r24
    157c:	6a e6       	ldi	r22, 0x6A	; 106
    157e:	78 e1       	ldi	r23, 0x18	; 24
    1580:	70 93 76 01 	sts	0x0176, r23	; 0x800176 <pwmRegValue+0x1>
    1584:	60 93 75 01 	sts	0x0175, r22	; 0x800175 <pwmRegValue>
    1588:	c1 51       	subi	r28, 0x11	; 17
    158a:	df 4f       	sbci	r29, 0xFF	; 255
    158c:	59 83       	std	Y+1, r21	; 0x01
    158e:	48 83       	st	Y, r20
    1590:	cf 5e       	subi	r28, 0xEF	; 239
    1592:	d0 40       	sbci	r29, 0x00	; 0
    1594:	f4 01       	movw	r30, r8
    1596:	33 83       	std	Z+3, r19	; 0x03
    1598:	22 83       	std	Z+2, r18	; 0x02
    159a:	11 96       	adiw	r26, 0x01	; 1
    159c:	8c 93       	st	X, r24
    159e:	82 e1       	ldi	r24, 0x12	; 18
    15a0:	9a e7       	ldi	r25, 0x7A	; 122
    15a2:	90 93 78 01 	sts	0x0178, r25	; 0x800178 <pwmRegValue+0x3>
    15a6:	80 93 77 01 	sts	0x0177, r24	; 0x800177 <pwmRegValue+0x2>
    15aa:	10 92 81 01 	sts	0x0181, r1	; 0x800181 <receiveWd>
    15ae:	10 92 7f 01 	sts	0x017F, r1	; 0x80017f <adcCurrent+0x1>
    15b2:	10 92 7e 01 	sts	0x017E, r1	; 0x80017e <adcCurrent>
    15b6:	80 91 80 01 	lds	r24, 0x0180	; 0x800180 <ctrlAdc>
    15ba:	87 7f       	andi	r24, 0xF7	; 247
    15bc:	80 93 80 01 	sts	0x0180, r24	; 0x800180 <ctrlAdc>
    15c0:	55 9a       	sbi	0x0a, 5	; 10
    15c2:	56 9a       	sbi	0x0a, 6	; 10
    15c4:	e1 2c       	mov	r14, r1
    15c6:	00 e0       	ldi	r16, 0x00	; 0
    15c8:	23 e0       	ldi	r18, 0x03	; 3
    15ca:	40 e0       	ldi	r20, 0x00	; 0
    15cc:	56 e9       	ldi	r21, 0x96	; 150
    15ce:	60 e0       	ldi	r22, 0x00	; 0
    15d0:	70 e0       	ldi	r23, 0x00	; 0
    15d2:	80 e0       	ldi	r24, 0x00	; 0
    15d4:	0e 94 38 07 	call	0xe70	; 0xe70 <usartConfig>
    15d8:	0e 94 d4 07 	call	0xfa8	; 0xfa8 <usartEnableReceiver>
    15dc:	0e 94 e2 07 	call	0xfc4	; 0xfc4 <usartEnableTransmitter>
    15e0:	0e 94 f0 07 	call	0xfe0	; 0xfe0 <usartActivateReceptionCompleteInterrupt>
    15e4:	0e 94 1a 08 	call	0x1034	; 0x1034 <usartStdio>
    15e8:	65 e0       	ldi	r22, 0x05	; 5
    15ea:	80 e0       	ldi	r24, 0x00	; 0
    15ec:	0e 94 86 04 	call	0x90c	; 0x90c <timer0Config>
    15f0:	80 e5       	ldi	r24, 0x50	; 80
    15f2:	93 ec       	ldi	r25, 0xC3	; 195
    15f4:	0e 94 e2 05 	call	0xbc4	; 0xbc4 <timer1SetCompareAValue>
    15f8:	84 ec       	ldi	r24, 0xC4	; 196
    15fa:	99 e0       	ldi	r25, 0x09	; 9
    15fc:	0e 94 f1 05 	call	0xbe2	; 0xbe2 <timer1SetCompareBValue>
    1600:	62 e0       	ldi	r22, 0x02	; 2
    1602:	84 e0       	ldi	r24, 0x04	; 4
    1604:	0e 94 46 05 	call	0xa8c	; 0xa8c <timer1Config>
    1608:	0e 94 a3 05 	call	0xb46	; 0xb46 <timer1ActivateCompareBInterrupt>
    160c:	67 e0       	ldi	r22, 0x07	; 7
    160e:	80 e0       	ldi	r24, 0x00	; 0
    1610:	0e 94 0f 06 	call	0xc1e	; 0xc1e <timer2Config>
    1614:	60 e0       	ldi	r22, 0x00	; 0
    1616:	8f ef       	ldi	r24, 0xFF	; 255
    1618:	0e 94 0f 06 	call	0xc1e	; 0xc1e <timer2Config>
    161c:	80 e0       	ldi	r24, 0x00	; 0
    161e:	0e 94 7e 06 	call	0xcfc	; 0xcfc <timer2SetCounterValue>
    1622:	0e 94 3d 06 	call	0xc7a	; 0xc7a <timer2ActivateOverflowInterrupt>
    1626:	47 e0       	ldi	r20, 0x07	; 7
    1628:	61 e0       	ldi	r22, 0x01	; 1
    162a:	85 e0       	ldi	r24, 0x05	; 5
    162c:	0e 94 93 06 	call	0xd26	; 0xd26 <adcConfig>
    1630:	83 e0       	ldi	r24, 0x03	; 3
    1632:	0e 94 ee 06 	call	0xddc	; 0xddc <adcDisableDigitalInput>
    1636:	83 e0       	ldi	r24, 0x03	; 3
    1638:	0e 94 de 06 	call	0xdbc	; 0xdbc <adcSelectChannel>
    163c:	0e 94 17 07 	call	0xe2e	; 0xe2e <adcActivateInterrupt>
    1640:	0e 94 02 07 	call	0xe04	; 0xe04 <adcEnable>
    1644:	78 94       	sei
    1646:	cc 5f       	subi	r28, 0xFC	; 252
    1648:	de 4f       	sbci	r29, 0xFE	; 254
    164a:	88 81       	ld	r24, Y
    164c:	c4 50       	subi	r28, 0x04	; 4
    164e:	d1 40       	sbci	r29, 0x01	; 1
    1650:	81 11       	cpse	r24, r1
    1652:	31 c0       	rjmp	.+98     	; 0x16b6 <main+0x1f2>
    1654:	9e 01       	movw	r18, r28
    1656:	2c 5f       	subi	r18, 0xFC	; 252
    1658:	3e 4f       	sbci	r19, 0xFE	; 254
    165a:	ae 01       	movw	r20, r28
    165c:	4d 5f       	subi	r20, 0xFD	; 253
    165e:	5e 4f       	sbci	r21, 0xFE	; 254
    1660:	be 01       	movw	r22, r28
    1662:	6d 54       	subi	r22, 0x4D	; 77
    1664:	7f 4f       	sbci	r23, 0xFF	; 255
    1666:	ce 01       	movw	r24, r28
    1668:	8b 5f       	subi	r24, 0xFB	; 251
    166a:	9e 4f       	sbci	r25, 0xFE	; 254
    166c:	0e 94 c1 09 	call	0x1382	; 0x1382 <receivePackageData>
    1670:	80 91 81 01 	lds	r24, 0x0181	; 0x800181 <receiveWd>
    1674:	88 23       	and	r24, r24
    1676:	c1 f0       	breq	.+48     	; 0x16a8 <main+0x1e4>
    1678:	10 92 81 01 	sts	0x0181, r1	; 0x800181 <receiveWd>
    167c:	cb 5f       	subi	r28, 0xFB	; 251
    167e:	de 4f       	sbci	r29, 0xFE	; 254
    1680:	18 82       	st	Y, r1
    1682:	c5 50       	subi	r28, 0x05	; 5
    1684:	d1 40       	sbci	r29, 0x01	; 1
    1686:	cd 5f       	subi	r28, 0xFD	; 253
    1688:	de 4f       	sbci	r29, 0xFE	; 254
    168a:	18 82       	st	Y, r1
    168c:	c3 50       	subi	r28, 0x03	; 3
    168e:	d1 40       	sbci	r29, 0x01	; 1
    1690:	cc 5f       	subi	r28, 0xFC	; 252
    1692:	de 4f       	sbci	r29, 0xFE	; 254
    1694:	18 82       	st	Y, r1
    1696:	c4 50       	subi	r28, 0x04	; 4
    1698:	d1 40       	sbci	r29, 0x01	; 1
    169a:	60 e0       	ldi	r22, 0x00	; 0
    169c:	8f ef       	ldi	r24, 0xFF	; 255
    169e:	0e 94 0f 06 	call	0xc1e	; 0xc1e <timer2Config>
    16a2:	80 e0       	ldi	r24, 0x00	; 0
    16a4:	0e 94 7e 06 	call	0xcfc	; 0xcfc <timer2SetCounterValue>
    16a8:	cc 5f       	subi	r28, 0xFC	; 252
    16aa:	de 4f       	sbci	r29, 0xFE	; 254
    16ac:	88 81       	ld	r24, Y
    16ae:	c4 50       	subi	r28, 0x04	; 4
    16b0:	d1 40       	sbci	r29, 0x01	; 1
    16b2:	88 23       	and	r24, r24
    16b4:	b9 f0       	breq	.+46     	; 0x16e4 <main+0x220>
    16b6:	cc 5f       	subi	r28, 0xFC	; 252
    16b8:	de 4f       	sbci	r29, 0xFE	; 254
    16ba:	18 82       	st	Y, r1
    16bc:	c4 50       	subi	r28, 0x04	; 4
    16be:	d1 40       	sbci	r29, 0x01	; 1
    16c0:	cb 5f       	subi	r28, 0xFB	; 251
    16c2:	de 4f       	sbci	r29, 0xFE	; 254
    16c4:	18 82       	st	Y, r1
    16c6:	c5 50       	subi	r28, 0x05	; 5
    16c8:	d1 40       	sbci	r29, 0x01	; 1
    16ca:	cd 54       	subi	r28, 0x4D	; 77
    16cc:	df 4f       	sbci	r29, 0xFF	; 255
    16ce:	58 80       	ld	r5, Y
    16d0:	c3 5b       	subi	r28, 0xB3	; 179
    16d2:	d0 40       	sbci	r29, 0x00	; 0
    16d4:	f1 e0       	ldi	r31, 0x01	; 1
    16d6:	5f 16       	cp	r5, r31
    16d8:	09 f4       	brne	.+2      	; 0x16dc <main+0x218>
    16da:	7d c1       	rjmp	.+762    	; 0x19d6 <main+0x512>
    16dc:	21 e1       	ldi	r18, 0x11	; 17
    16de:	52 16       	cp	r5, r18
    16e0:	09 f4       	brne	.+2      	; 0x16e4 <main+0x220>
    16e2:	0b c2       	rjmp	.+1046   	; 0x1afa <main+0x636>
    16e4:	80 91 80 01 	lds	r24, 0x0180	; 0x800180 <ctrlAdc>
    16e8:	87 70       	andi	r24, 0x07	; 7
    16ea:	87 30       	cpi	r24, 0x07	; 7
    16ec:	09 f0       	breq	.+2      	; 0x16f0 <main+0x22c>
    16ee:	70 c1       	rjmp	.+736    	; 0x19d0 <main+0x50c>
    16f0:	80 91 80 01 	lds	r24, 0x0180	; 0x800180 <ctrlAdc>
    16f4:	88 7f       	andi	r24, 0xF8	; 248
    16f6:	80 93 80 01 	sts	0x0180, r24	; 0x800180 <ctrlAdc>
    16fa:	90 91 80 01 	lds	r25, 0x0180	; 0x800180 <ctrlAdc>
    16fe:	80 91 80 01 	lds	r24, 0x0180	; 0x800180 <ctrlAdc>
    1702:	20 91 80 01 	lds	r18, 0x0180	; 0x800180 <ctrlAdc>
    1706:	23 fb       	bst	r18, 3
    1708:	66 24       	eor	r6, r6
    170a:	60 f8       	bld	r6, 0
    170c:	71 2c       	mov	r7, r1
    170e:	d3 01       	movw	r26, r6
    1710:	aa 0f       	add	r26, r26
    1712:	bb 1f       	adc	r27, r27
    1714:	49 ef       	ldi	r20, 0xF9	; 249
    1716:	50 e0       	ldi	r21, 0x00	; 0
    1718:	4c 0f       	add	r20, r28
    171a:	5d 1f       	adc	r21, r29
    171c:	a4 0f       	add	r26, r20
    171e:	b5 1f       	adc	r27, r21
    1720:	93 fb       	bst	r25, 3
    1722:	99 27       	eor	r25, r25
    1724:	90 f9       	bld	r25, 0
    1726:	c7 5f       	subi	r28, 0xF7	; 247
    1728:	de 4f       	sbci	r29, 0xFE	; 254
    172a:	98 83       	st	Y, r25
    172c:	c9 50       	subi	r28, 0x09	; 9
    172e:	d1 40       	sbci	r29, 0x01	; 1
    1730:	c6 5f       	subi	r28, 0xF6	; 246
    1732:	de 4f       	sbci	r29, 0xFE	; 254
    1734:	18 82       	st	Y, r1
    1736:	ca 50       	subi	r28, 0x0A	; 10
    1738:	d1 40       	sbci	r29, 0x01	; 1
    173a:	83 fb       	bst	r24, 3
    173c:	88 27       	eor	r24, r24
    173e:	80 f9       	bld	r24, 0
    1740:	c5 5f       	subi	r28, 0xF5	; 245
    1742:	de 4f       	sbci	r29, 0xFE	; 254
    1744:	88 83       	st	Y, r24
    1746:	cb 50       	subi	r28, 0x0B	; 11
    1748:	d1 40       	sbci	r29, 0x01	; 1
    174a:	c4 5f       	subi	r28, 0xF4	; 244
    174c:	de 4f       	sbci	r29, 0xFE	; 254
    174e:	18 82       	st	Y, r1
    1750:	cc 50       	subi	r28, 0x0C	; 12
    1752:	d1 40       	sbci	r29, 0x01	; 1
    1754:	e1 e0       	ldi	r30, 0x01	; 1
    1756:	f1 e0       	ldi	r31, 0x01	; 1
    1758:	ec 0f       	add	r30, r28
    175a:	fd 1f       	adc	r31, r29
    175c:	c5 5f       	subi	r28, 0xF5	; 245
    175e:	de 4f       	sbci	r29, 0xFE	; 254
    1760:	88 81       	ld	r24, Y
    1762:	99 81       	ldd	r25, Y+1	; 0x01
    1764:	cb 50       	subi	r28, 0x0B	; 11
    1766:	d1 40       	sbci	r29, 0x01	; 1
    1768:	e8 0f       	add	r30, r24
    176a:	f9 1f       	adc	r31, r25
    176c:	80 81       	ld	r24, Z
    176e:	c7 5f       	subi	r28, 0xF7	; 247
    1770:	de 4f       	sbci	r29, 0xFE	; 254
    1772:	e8 81       	ld	r30, Y
    1774:	f9 81       	ldd	r31, Y+1	; 0x01
    1776:	c9 50       	subi	r28, 0x09	; 9
    1778:	d1 40       	sbci	r29, 0x01	; 1
    177a:	66 e0       	ldi	r22, 0x06	; 6
    177c:	ee 0f       	add	r30, r30
    177e:	ff 1f       	adc	r31, r31
    1780:	6a 95       	dec	r22
    1782:	e1 f7       	brne	.-8      	; 0x177c <main+0x2b8>
    1784:	ec 0d       	add	r30, r12
    1786:	fd 1d       	adc	r31, r13
    1788:	e8 0f       	add	r30, r24
    178a:	f1 1d       	adc	r31, r1
    178c:	20 81       	ld	r18, Z
    178e:	8d 91       	ld	r24, X+
    1790:	9c 91       	ld	r25, X
    1792:	11 97       	sbiw	r26, 0x01	; 1
    1794:	82 1b       	sub	r24, r18
    1796:	91 09       	sbc	r25, r1
    1798:	8d 93       	st	X+, r24
    179a:	9c 93       	st	X, r25
    179c:	80 91 7e 01 	lds	r24, 0x017E	; 0x80017e <adcCurrent>
    17a0:	90 91 7f 01 	lds	r25, 0x017F	; 0x80017f <adcCurrent+0x1>
    17a4:	30 91 80 01 	lds	r19, 0x0180	; 0x800180 <ctrlAdc>
    17a8:	20 91 80 01 	lds	r18, 0x0180	; 0x800180 <ctrlAdc>
    17ac:	33 fb       	bst	r19, 3
    17ae:	33 27       	eor	r19, r19
    17b0:	30 f9       	bld	r19, 0
    17b2:	c3 5f       	subi	r28, 0xF3	; 243
    17b4:	de 4f       	sbci	r29, 0xFE	; 254
    17b6:	38 83       	st	Y, r19
    17b8:	cd 50       	subi	r28, 0x0D	; 13
    17ba:	d1 40       	sbci	r29, 0x01	; 1
    17bc:	c2 5f       	subi	r28, 0xF2	; 242
    17be:	de 4f       	sbci	r29, 0xFE	; 254
    17c0:	18 82       	st	Y, r1
    17c2:	ce 50       	subi	r28, 0x0E	; 14
    17c4:	d1 40       	sbci	r29, 0x01	; 1
    17c6:	23 fb       	bst	r18, 3
    17c8:	22 27       	eor	r18, r18
    17ca:	20 f9       	bld	r18, 0
    17cc:	c1 5f       	subi	r28, 0xF1	; 241
    17ce:	de 4f       	sbci	r29, 0xFE	; 254
    17d0:	28 83       	st	Y, r18
    17d2:	cf 50       	subi	r28, 0x0F	; 15
    17d4:	d1 40       	sbci	r29, 0x01	; 1
    17d6:	c0 5f       	subi	r28, 0xF0	; 240
    17d8:	de 4f       	sbci	r29, 0xFE	; 254
    17da:	18 82       	st	Y, r1
    17dc:	c0 51       	subi	r28, 0x10	; 16
    17de:	d1 40       	sbci	r29, 0x01	; 1
    17e0:	e1 e0       	ldi	r30, 0x01	; 1
    17e2:	f1 e0       	ldi	r31, 0x01	; 1
    17e4:	ec 0f       	add	r30, r28
    17e6:	fd 1f       	adc	r31, r29
    17e8:	c1 5f       	subi	r28, 0xF1	; 241
    17ea:	de 4f       	sbci	r29, 0xFE	; 254
    17ec:	a8 81       	ld	r26, Y
    17ee:	b9 81       	ldd	r27, Y+1	; 0x01
    17f0:	cf 50       	subi	r28, 0x0F	; 15
    17f2:	d1 40       	sbci	r29, 0x01	; 1
    17f4:	ea 0f       	add	r30, r26
    17f6:	fb 1f       	adc	r31, r27
    17f8:	20 81       	ld	r18, Z
    17fa:	c3 5f       	subi	r28, 0xF3	; 243
    17fc:	de 4f       	sbci	r29, 0xFE	; 254
    17fe:	e8 81       	ld	r30, Y
    1800:	f9 81       	ldd	r31, Y+1	; 0x01
    1802:	cd 50       	subi	r28, 0x0D	; 13
    1804:	d1 40       	sbci	r29, 0x01	; 1
    1806:	76 e0       	ldi	r23, 0x06	; 6
    1808:	ee 0f       	add	r30, r30
    180a:	ff 1f       	adc	r31, r31
    180c:	7a 95       	dec	r23
    180e:	e1 f7       	brne	.-8      	; 0x1808 <main+0x344>
    1810:	ec 0d       	add	r30, r12
    1812:	fd 1d       	adc	r31, r13
    1814:	e2 0f       	add	r30, r18
    1816:	f1 1d       	adc	r31, r1
    1818:	96 95       	lsr	r25
    181a:	87 95       	ror	r24
    181c:	96 95       	lsr	r25
    181e:	87 95       	ror	r24
    1820:	80 83       	st	Z, r24
    1822:	90 91 80 01 	lds	r25, 0x0180	; 0x800180 <ctrlAdc>
    1826:	80 91 80 01 	lds	r24, 0x0180	; 0x800180 <ctrlAdc>
    182a:	20 91 80 01 	lds	r18, 0x0180	; 0x800180 <ctrlAdc>
    182e:	23 fb       	bst	r18, 3
    1830:	22 24       	eor	r2, r2
    1832:	20 f8       	bld	r2, 0
    1834:	31 2c       	mov	r3, r1
    1836:	d1 01       	movw	r26, r2
    1838:	aa 0f       	add	r26, r26
    183a:	bb 1f       	adc	r27, r27
    183c:	a4 0f       	add	r26, r20
    183e:	b5 1f       	adc	r27, r21
    1840:	93 fb       	bst	r25, 3
    1842:	99 27       	eor	r25, r25
    1844:	90 f9       	bld	r25, 0
    1846:	cf 5e       	subi	r28, 0xEF	; 239
    1848:	de 4f       	sbci	r29, 0xFE	; 254
    184a:	98 83       	st	Y, r25
    184c:	c1 51       	subi	r28, 0x11	; 17
    184e:	d1 40       	sbci	r29, 0x01	; 1
    1850:	ce 5e       	subi	r28, 0xEE	; 238
    1852:	de 4f       	sbci	r29, 0xFE	; 254
    1854:	18 82       	st	Y, r1
    1856:	c2 51       	subi	r28, 0x12	; 18
    1858:	d1 40       	sbci	r29, 0x01	; 1
    185a:	83 fb       	bst	r24, 3
    185c:	88 27       	eor	r24, r24
    185e:	80 f9       	bld	r24, 0
    1860:	cd 5e       	subi	r28, 0xED	; 237
    1862:	de 4f       	sbci	r29, 0xFE	; 254
    1864:	88 83       	st	Y, r24
    1866:	c3 51       	subi	r28, 0x13	; 19
    1868:	d1 40       	sbci	r29, 0x01	; 1
    186a:	cc 5e       	subi	r28, 0xEC	; 236
    186c:	de 4f       	sbci	r29, 0xFE	; 254
    186e:	18 82       	st	Y, r1
    1870:	c4 51       	subi	r28, 0x14	; 20
    1872:	d1 40       	sbci	r29, 0x01	; 1
    1874:	e1 e0       	ldi	r30, 0x01	; 1
    1876:	f1 e0       	ldi	r31, 0x01	; 1
    1878:	ec 0f       	add	r30, r28
    187a:	fd 1f       	adc	r31, r29
    187c:	cd 5e       	subi	r28, 0xED	; 237
    187e:	de 4f       	sbci	r29, 0xFE	; 254
    1880:	28 81       	ld	r18, Y
    1882:	39 81       	ldd	r19, Y+1	; 0x01
    1884:	c3 51       	subi	r28, 0x13	; 19
    1886:	d1 40       	sbci	r29, 0x01	; 1
    1888:	e2 0f       	add	r30, r18
    188a:	f3 1f       	adc	r31, r19
    188c:	80 81       	ld	r24, Z
    188e:	cf 5e       	subi	r28, 0xEF	; 239
    1890:	de 4f       	sbci	r29, 0xFE	; 254
    1892:	e8 81       	ld	r30, Y
    1894:	f9 81       	ldd	r31, Y+1	; 0x01
    1896:	c1 51       	subi	r28, 0x11	; 17
    1898:	d1 40       	sbci	r29, 0x01	; 1
    189a:	06 e0       	ldi	r16, 0x06	; 6
    189c:	ee 0f       	add	r30, r30
    189e:	ff 1f       	adc	r31, r31
    18a0:	0a 95       	dec	r16
    18a2:	e1 f7       	brne	.-8      	; 0x189c <main+0x3d8>
    18a4:	ec 0d       	add	r30, r12
    18a6:	fd 1d       	adc	r31, r13
    18a8:	e8 0f       	add	r30, r24
    18aa:	f1 1d       	adc	r31, r1
    18ac:	20 81       	ld	r18, Z
    18ae:	8d 91       	ld	r24, X+
    18b0:	9c 91       	ld	r25, X
    18b2:	11 97       	sbiw	r26, 0x01	; 1
    18b4:	82 0f       	add	r24, r18
    18b6:	91 1d       	adc	r25, r1
    18b8:	8d 93       	st	X+, r24
    18ba:	9c 93       	st	X, r25
    18bc:	80 91 80 01 	lds	r24, 0x0180	; 0x800180 <ctrlAdc>
    18c0:	83 fb       	bst	r24, 3
    18c2:	88 27       	eor	r24, r24
    18c4:	80 f9       	bld	r24, 0
    18c6:	cb 5e       	subi	r28, 0xEB	; 235
    18c8:	de 4f       	sbci	r29, 0xFE	; 254
    18ca:	88 83       	st	Y, r24
    18cc:	c5 51       	subi	r28, 0x15	; 21
    18ce:	d1 40       	sbci	r29, 0x01	; 1
    18d0:	ca 5e       	subi	r28, 0xEA	; 234
    18d2:	de 4f       	sbci	r29, 0xFE	; 254
    18d4:	18 82       	st	Y, r1
    18d6:	c6 51       	subi	r28, 0x16	; 22
    18d8:	d1 40       	sbci	r29, 0x01	; 1
    18da:	e1 e0       	ldi	r30, 0x01	; 1
    18dc:	f1 e0       	ldi	r31, 0x01	; 1
    18de:	ec 0f       	add	r30, r28
    18e0:	fd 1f       	adc	r31, r29
    18e2:	cb 5e       	subi	r28, 0xEB	; 235
    18e4:	de 4f       	sbci	r29, 0xFE	; 254
    18e6:	48 81       	ld	r20, Y
    18e8:	59 81       	ldd	r21, Y+1	; 0x01
    18ea:	c5 51       	subi	r28, 0x15	; 21
    18ec:	d1 40       	sbci	r29, 0x01	; 1
    18ee:	e4 0f       	add	r30, r20
    18f0:	f5 1f       	adc	r31, r21
    18f2:	80 81       	ld	r24, Z
    18f4:	8f 33       	cpi	r24, 0x3F	; 63
    18f6:	09 f0       	breq	.+2      	; 0x18fa <main+0x436>
    18f8:	42 c1       	rjmp	.+644    	; 0x1b7e <main+0x6ba>
    18fa:	80 91 80 01 	lds	r24, 0x0180	; 0x800180 <ctrlAdc>
    18fe:	83 fb       	bst	r24, 3
    1900:	88 27       	eor	r24, r24
    1902:	80 f9       	bld	r24, 0
    1904:	c9 5e       	subi	r28, 0xE9	; 233
    1906:	de 4f       	sbci	r29, 0xFE	; 254
    1908:	88 83       	st	Y, r24
    190a:	c7 51       	subi	r28, 0x17	; 23
    190c:	d1 40       	sbci	r29, 0x01	; 1
    190e:	c8 5e       	subi	r28, 0xE8	; 232
    1910:	de 4f       	sbci	r29, 0xFE	; 254
    1912:	18 82       	st	Y, r1
    1914:	c8 51       	subi	r28, 0x18	; 24
    1916:	d1 40       	sbci	r29, 0x01	; 1
    1918:	e1 e0       	ldi	r30, 0x01	; 1
    191a:	f1 e0       	ldi	r31, 0x01	; 1
    191c:	ec 0f       	add	r30, r28
    191e:	fd 1f       	adc	r31, r29
    1920:	c9 5e       	subi	r28, 0xE9	; 233
    1922:	de 4f       	sbci	r29, 0xFE	; 254
    1924:	88 81       	ld	r24, Y
    1926:	99 81       	ldd	r25, Y+1	; 0x01
    1928:	c7 51       	subi	r28, 0x17	; 23
    192a:	d1 40       	sbci	r29, 0x01	; 1
    192c:	e8 0f       	add	r30, r24
    192e:	f9 1f       	adc	r31, r25
    1930:	10 82       	st	Z, r1
    1932:	90 91 80 01 	lds	r25, 0x0180	; 0x800180 <ctrlAdc>
    1936:	80 91 80 01 	lds	r24, 0x0180	; 0x800180 <ctrlAdc>
    193a:	93 fb       	bst	r25, 3
    193c:	99 27       	eor	r25, r25
    193e:	90 f9       	bld	r25, 0
    1940:	c7 5e       	subi	r28, 0xE7	; 231
    1942:	de 4f       	sbci	r29, 0xFE	; 254
    1944:	98 83       	st	Y, r25
    1946:	c9 51       	subi	r28, 0x19	; 25
    1948:	d1 40       	sbci	r29, 0x01	; 1
    194a:	c6 5e       	subi	r28, 0xE6	; 230
    194c:	de 4f       	sbci	r29, 0xFE	; 254
    194e:	18 82       	st	Y, r1
    1950:	ca 51       	subi	r28, 0x1A	; 26
    1952:	d1 40       	sbci	r29, 0x01	; 1
    1954:	c7 5e       	subi	r28, 0xE7	; 231
    1956:	de 4f       	sbci	r29, 0xFE	; 254
    1958:	e8 81       	ld	r30, Y
    195a:	f9 81       	ldd	r31, Y+1	; 0x01
    195c:	c9 51       	subi	r28, 0x19	; 25
    195e:	d1 40       	sbci	r29, 0x01	; 1
    1960:	ee 0f       	add	r30, r30
    1962:	ff 1f       	adc	r31, r31
    1964:	25 ef       	ldi	r18, 0xF5	; 245
    1966:	30 e0       	ldi	r19, 0x00	; 0
    1968:	2c 0f       	add	r18, r28
    196a:	3d 1f       	adc	r19, r29
    196c:	e2 0f       	add	r30, r18
    196e:	f3 1f       	adc	r31, r19
    1970:	83 fb       	bst	r24, 3
    1972:	88 27       	eor	r24, r24
    1974:	80 f9       	bld	r24, 0
    1976:	c5 5e       	subi	r28, 0xE5	; 229
    1978:	de 4f       	sbci	r29, 0xFE	; 254
    197a:	88 83       	st	Y, r24
    197c:	cb 51       	subi	r28, 0x1B	; 27
    197e:	d1 40       	sbci	r29, 0x01	; 1
    1980:	c4 5e       	subi	r28, 0xE4	; 228
    1982:	de 4f       	sbci	r29, 0xFE	; 254
    1984:	18 82       	st	Y, r1
    1986:	cc 51       	subi	r28, 0x1C	; 28
    1988:	d1 40       	sbci	r29, 0x01	; 1
    198a:	c5 5e       	subi	r28, 0xE5	; 229
    198c:	de 4f       	sbci	r29, 0xFE	; 254
    198e:	a8 81       	ld	r26, Y
    1990:	b9 81       	ldd	r27, Y+1	; 0x01
    1992:	cb 51       	subi	r28, 0x1B	; 27
    1994:	d1 40       	sbci	r29, 0x01	; 1
    1996:	aa 0f       	add	r26, r26
    1998:	bb 1f       	adc	r27, r27
    199a:	49 ef       	ldi	r20, 0xF9	; 249
    199c:	50 e0       	ldi	r21, 0x00	; 0
    199e:	4c 0f       	add	r20, r28
    19a0:	5d 1f       	adc	r21, r29
    19a2:	a4 0f       	add	r26, r20
    19a4:	b5 1f       	adc	r27, r21
    19a6:	8d 91       	ld	r24, X+
    19a8:	9c 91       	ld	r25, X
    19aa:	36 e0       	ldi	r19, 0x06	; 6
    19ac:	96 95       	lsr	r25
    19ae:	87 95       	ror	r24
    19b0:	3a 95       	dec	r19
    19b2:	e1 f7       	brne	.-8      	; 0x19ac <main+0x4e8>
    19b4:	91 83       	std	Z+1, r25	; 0x01
    19b6:	80 83       	st	Z, r24
    19b8:	80 91 80 01 	lds	r24, 0x0180	; 0x800180 <ctrlAdc>
    19bc:	83 fd       	sbrc	r24, 3
    19be:	fe c0       	rjmp	.+508    	; 0x1bbc <main+0x6f8>
    19c0:	80 91 80 01 	lds	r24, 0x0180	; 0x800180 <ctrlAdc>
    19c4:	88 60       	ori	r24, 0x08	; 8
    19c6:	80 93 80 01 	sts	0x0180, r24	; 0x800180 <ctrlAdc>
    19ca:	82 e0       	ldi	r24, 0x02	; 2
    19cc:	0e 94 de 06 	call	0xdbc	; 0xdbc <adcSelectChannel>
    19d0:	80 91 80 01 	lds	r24, 0x0180	; 0x800180 <ctrlAdc>
    19d4:	38 ce       	rjmp	.-912    	; 0x1646 <main+0x182>
    19d6:	cc 54       	subi	r28, 0x4C	; 76
    19d8:	df 4f       	sbci	r29, 0xFF	; 255
    19da:	38 81       	ld	r19, Y
    19dc:	c4 5b       	subi	r28, 0xB4	; 180
    19de:	d0 40       	sbci	r29, 0x00	; 0
    19e0:	ca 5f       	subi	r28, 0xFA	; 250
    19e2:	de 4f       	sbci	r29, 0xFE	; 254
    19e4:	38 83       	st	Y, r19
    19e6:	c6 50       	subi	r28, 0x06	; 6
    19e8:	d1 40       	sbci	r29, 0x01	; 1
    19ea:	e3 2e       	mov	r14, r19
    19ec:	f1 2c       	mov	r15, r1
    19ee:	cb 54       	subi	r28, 0x4B	; 75
    19f0:	df 4f       	sbci	r29, 0xFF	; 255
    19f2:	48 80       	ld	r4, Y
    19f4:	c5 5b       	subi	r28, 0xB5	; 181
    19f6:	d0 40       	sbci	r29, 0x00	; 0
    19f8:	ed ef       	ldi	r30, 0xFD	; 253
    19fa:	f0 e0       	ldi	r31, 0x00	; 0
    19fc:	ec 0f       	add	r30, r28
    19fe:	fd 1f       	adc	r31, r29
    1a00:	ee 0d       	add	r30, r14
    1a02:	ff 1d       	adc	r31, r15
    1a04:	40 82       	st	Z, r4
    1a06:	87 01       	movw	r16, r14
    1a08:	00 0f       	add	r16, r16
    1a0a:	11 1f       	adc	r17, r17
    1a0c:	f4 01       	movw	r30, r8
    1a0e:	e0 0f       	add	r30, r16
    1a10:	f1 1f       	adc	r31, r17
    1a12:	60 81       	ld	r22, Z
    1a14:	71 81       	ldd	r23, Z+1	; 0x01
    1a16:	ed ee       	ldi	r30, 0xED	; 237
    1a18:	f0 e0       	ldi	r31, 0x00	; 0
    1a1a:	ec 0f       	add	r30, r28
    1a1c:	fd 1f       	adc	r31, r29
    1a1e:	e0 0f       	add	r30, r16
    1a20:	f1 1f       	adc	r31, r17
    1a22:	44 2d       	mov	r20, r4
    1a24:	80 81       	ld	r24, Z
    1a26:	91 81       	ldd	r25, Z+1	; 0x01
    1a28:	0e 94 08 09 	call	0x1210	; 0x1210 <update_reg_value>
    1a2c:	f8 01       	movw	r30, r16
    1a2e:	eb 58       	subi	r30, 0x8B	; 139
    1a30:	fe 4f       	sbci	r31, 0xFE	; 254
    1a32:	48 ea       	ldi	r20, 0xA8	; 168
    1a34:	51 e6       	ldi	r21, 0x61	; 97
    1a36:	e4 9e       	mul	r14, r20
    1a38:	90 01       	movw	r18, r0
    1a3a:	e5 9e       	mul	r14, r21
    1a3c:	30 0d       	add	r19, r0
    1a3e:	f4 9e       	mul	r15, r20
    1a40:	30 0d       	add	r19, r0
    1a42:	11 24       	eor	r1, r1
    1a44:	2c 53       	subi	r18, 0x3C	; 60
    1a46:	36 4f       	sbci	r19, 0xF6	; 246
    1a48:	82 0f       	add	r24, r18
    1a4a:	93 1f       	adc	r25, r19
    1a4c:	91 83       	std	Z+1, r25	; 0x01
    1a4e:	80 83       	st	Z, r24
    1a50:	cf 57       	subi	r28, 0x7F	; 127
    1a52:	df 4f       	sbci	r29, 0xFF	; 255
    1a54:	58 82       	st	Y, r5
    1a56:	c1 58       	subi	r28, 0x81	; 129
    1a58:	d0 40       	sbci	r29, 0x00	; 0
    1a5a:	ca 5f       	subi	r28, 0xFA	; 250
    1a5c:	de 4f       	sbci	r29, 0xFE	; 254
    1a5e:	58 81       	ld	r21, Y
    1a60:	c6 50       	subi	r28, 0x06	; 6
    1a62:	d1 40       	sbci	r29, 0x01	; 1
    1a64:	ce 57       	subi	r28, 0x7E	; 126
    1a66:	df 4f       	sbci	r29, 0xFF	; 255
    1a68:	58 83       	st	Y, r21
    1a6a:	c2 58       	subi	r28, 0x82	; 130
    1a6c:	d0 40       	sbci	r29, 0x00	; 0
    1a6e:	cd 57       	subi	r28, 0x7D	; 125
    1a70:	df 4f       	sbci	r29, 0xFF	; 255
    1a72:	48 82       	st	Y, r4
    1a74:	c3 58       	subi	r28, 0x83	; 131
    1a76:	d0 40       	sbci	r29, 0x00	; 0
    1a78:	cd 5f       	subi	r28, 0xFD	; 253
    1a7a:	de 4f       	sbci	r29, 0xFE	; 254
    1a7c:	48 81       	ld	r20, Y
    1a7e:	c3 50       	subi	r28, 0x03	; 3
    1a80:	d1 40       	sbci	r29, 0x01	; 1
    1a82:	be 01       	movw	r22, r28
    1a84:	6f 57       	subi	r22, 0x7F	; 127
    1a86:	7f 4f       	sbci	r23, 0xFF	; 255
    1a88:	ce 01       	movw	r24, r28
    1a8a:	8d 54       	subi	r24, 0x4D	; 77
    1a8c:	9f 4f       	sbci	r25, 0xFF	; 255
    1a8e:	0e 94 38 0a 	call	0x1470	; 0x1470 <buildTransmitPackageData>
    1a92:	cd 5f       	subi	r28, 0xFD	; 253
    1a94:	de 4f       	sbci	r29, 0xFE	; 254
    1a96:	88 83       	st	Y, r24
    1a98:	c3 50       	subi	r28, 0x03	; 3
    1a9a:	d1 40       	sbci	r29, 0x01	; 1
    1a9c:	80 e0       	ldi	r24, 0x00	; 0
    1a9e:	cd 5f       	subi	r28, 0xFD	; 253
    1aa0:	de 4f       	sbci	r29, 0xFE	; 254
    1aa2:	98 81       	ld	r25, Y
    1aa4:	c3 50       	subi	r28, 0x03	; 3
    1aa6:	d1 40       	sbci	r29, 0x01	; 1
    1aa8:	89 17       	cp	r24, r25
    1aaa:	d0 f0       	brcs	.+52     	; 0x1ae0 <main+0x61c>
    1aac:	cc 54       	subi	r28, 0x4C	; 76
    1aae:	df 4f       	sbci	r29, 0xFF	; 255
    1ab0:	88 81       	ld	r24, Y
    1ab2:	c4 5b       	subi	r28, 0xB4	; 180
    1ab4:	d0 40       	sbci	r29, 0x00	; 0
    1ab6:	f5 01       	movw	r30, r10
    1ab8:	e8 0f       	add	r30, r24
    1aba:	f1 1d       	adc	r31, r1
    1abc:	90 81       	ld	r25, Z
    1abe:	1f 92       	push	r1
    1ac0:	9f 93       	push	r25
    1ac2:	1f 92       	push	r1
    1ac4:	8f 93       	push	r24
    1ac6:	a5 e2       	ldi	r26, 0x25	; 37
    1ac8:	b1 e0       	ldi	r27, 0x01	; 1
    1aca:	bf 93       	push	r27
    1acc:	af 93       	push	r26
    1ace:	0e 94 3f 0e 	call	0x1c7e	; 0x1c7e <printf>
    1ad2:	0f 90       	pop	r0
    1ad4:	0f 90       	pop	r0
    1ad6:	0f 90       	pop	r0
    1ad8:	0f 90       	pop	r0
    1ada:	0f 90       	pop	r0
    1adc:	0f 90       	pop	r0
    1ade:	02 ce       	rjmp	.-1020   	; 0x16e4 <main+0x220>
    1ae0:	11 e0       	ldi	r17, 0x01	; 1
    1ae2:	18 0f       	add	r17, r24
    1ae4:	e3 eb       	ldi	r30, 0xB3	; 179
    1ae6:	f0 e0       	ldi	r31, 0x00	; 0
    1ae8:	ec 0f       	add	r30, r28
    1aea:	fd 1f       	adc	r31, r29
    1aec:	e8 0f       	add	r30, r24
    1aee:	f1 1d       	adc	r31, r1
    1af0:	80 81       	ld	r24, Z
    1af2:	0e 94 58 08 	call	0x10b0	; 0x10b0 <usartTransmit>
    1af6:	81 2f       	mov	r24, r17
    1af8:	d2 cf       	rjmp	.-92     	; 0x1a9e <main+0x5da>
    1afa:	cf 57       	subi	r28, 0x7F	; 127
    1afc:	df 4f       	sbci	r29, 0xFF	; 255
    1afe:	58 82       	st	Y, r5
    1b00:	c1 58       	subi	r28, 0x81	; 129
    1b02:	d0 40       	sbci	r29, 0x00	; 0
    1b04:	cc 54       	subi	r28, 0x4C	; 76
    1b06:	df 4f       	sbci	r29, 0xFF	; 255
    1b08:	e8 81       	ld	r30, Y
    1b0a:	c4 5b       	subi	r28, 0xB4	; 180
    1b0c:	d0 40       	sbci	r29, 0x00	; 0
    1b0e:	ce 57       	subi	r28, 0x7E	; 126
    1b10:	df 4f       	sbci	r29, 0xFF	; 255
    1b12:	e8 83       	st	Y, r30
    1b14:	c2 58       	subi	r28, 0x82	; 130
    1b16:	d0 40       	sbci	r29, 0x00	; 0
    1b18:	f0 e0       	ldi	r31, 0x00	; 0
    1b1a:	ee 0f       	add	r30, r30
    1b1c:	ff 1f       	adc	r31, r31
    1b1e:	25 ef       	ldi	r18, 0xF5	; 245
    1b20:	30 e0       	ldi	r19, 0x00	; 0
    1b22:	2c 0f       	add	r18, r28
    1b24:	3d 1f       	adc	r19, r29
    1b26:	e2 0f       	add	r30, r18
    1b28:	f3 1f       	adc	r31, r19
    1b2a:	80 81       	ld	r24, Z
    1b2c:	cd 57       	subi	r28, 0x7D	; 125
    1b2e:	df 4f       	sbci	r29, 0xFF	; 255
    1b30:	88 83       	st	Y, r24
    1b32:	c3 58       	subi	r28, 0x83	; 131
    1b34:	d0 40       	sbci	r29, 0x00	; 0
    1b36:	43 e0       	ldi	r20, 0x03	; 3
    1b38:	be 01       	movw	r22, r28
    1b3a:	6f 57       	subi	r22, 0x7F	; 127
    1b3c:	7f 4f       	sbci	r23, 0xFF	; 255
    1b3e:	ce 01       	movw	r24, r28
    1b40:	8d 54       	subi	r24, 0x4D	; 77
    1b42:	9f 4f       	sbci	r25, 0xFF	; 255
    1b44:	0e 94 38 0a 	call	0x1470	; 0x1470 <buildTransmitPackageData>
    1b48:	cd 5f       	subi	r28, 0xFD	; 253
    1b4a:	de 4f       	sbci	r29, 0xFE	; 254
    1b4c:	88 83       	st	Y, r24
    1b4e:	c3 50       	subi	r28, 0x03	; 3
    1b50:	d1 40       	sbci	r29, 0x01	; 1
    1b52:	80 e0       	ldi	r24, 0x00	; 0
    1b54:	cd 5f       	subi	r28, 0xFD	; 253
    1b56:	de 4f       	sbci	r29, 0xFE	; 254
    1b58:	98 81       	ld	r25, Y
    1b5a:	c3 50       	subi	r28, 0x03	; 3
    1b5c:	d1 40       	sbci	r29, 0x01	; 1
    1b5e:	89 17       	cp	r24, r25
    1b60:	08 f0       	brcs	.+2      	; 0x1b64 <main+0x6a0>
    1b62:	c0 cd       	rjmp	.-1152   	; 0x16e4 <main+0x220>
    1b64:	11 e0       	ldi	r17, 0x01	; 1
    1b66:	18 0f       	add	r17, r24
    1b68:	e3 eb       	ldi	r30, 0xB3	; 179
    1b6a:	f0 e0       	ldi	r31, 0x00	; 0
    1b6c:	ec 0f       	add	r30, r28
    1b6e:	fd 1f       	adc	r31, r29
    1b70:	e8 0f       	add	r30, r24
    1b72:	f1 1d       	adc	r31, r1
    1b74:	80 81       	ld	r24, Z
    1b76:	0e 94 58 08 	call	0x10b0	; 0x10b0 <usartTransmit>
    1b7a:	81 2f       	mov	r24, r17
    1b7c:	eb cf       	rjmp	.-42     	; 0x1b54 <main+0x690>
    1b7e:	80 91 80 01 	lds	r24, 0x0180	; 0x800180 <ctrlAdc>
    1b82:	83 fb       	bst	r24, 3
    1b84:	88 27       	eor	r24, r24
    1b86:	80 f9       	bld	r24, 0
    1b88:	c9 5f       	subi	r28, 0xF9	; 249
    1b8a:	de 4f       	sbci	r29, 0xFE	; 254
    1b8c:	88 83       	st	Y, r24
    1b8e:	c7 50       	subi	r28, 0x07	; 7
    1b90:	d1 40       	sbci	r29, 0x01	; 1
    1b92:	c8 5f       	subi	r28, 0xF8	; 248
    1b94:	de 4f       	sbci	r29, 0xFE	; 254
    1b96:	18 82       	st	Y, r1
    1b98:	c8 50       	subi	r28, 0x08	; 8
    1b9a:	d1 40       	sbci	r29, 0x01	; 1
    1b9c:	e1 e0       	ldi	r30, 0x01	; 1
    1b9e:	f1 e0       	ldi	r31, 0x01	; 1
    1ba0:	ec 0f       	add	r30, r28
    1ba2:	fd 1f       	adc	r31, r29
    1ba4:	c9 5f       	subi	r28, 0xF9	; 249
    1ba6:	de 4f       	sbci	r29, 0xFE	; 254
    1ba8:	a8 81       	ld	r26, Y
    1baa:	b9 81       	ldd	r27, Y+1	; 0x01
    1bac:	c7 50       	subi	r28, 0x07	; 7
    1bae:	d1 40       	sbci	r29, 0x01	; 1
    1bb0:	ea 0f       	add	r30, r26
    1bb2:	fb 1f       	adc	r31, r27
    1bb4:	80 81       	ld	r24, Z
    1bb6:	8f 5f       	subi	r24, 0xFF	; 255
    1bb8:	80 83       	st	Z, r24
    1bba:	bb ce       	rjmp	.-650    	; 0x1932 <main+0x46e>
    1bbc:	80 91 80 01 	lds	r24, 0x0180	; 0x800180 <ctrlAdc>
    1bc0:	87 7f       	andi	r24, 0xF7	; 247
    1bc2:	80 93 80 01 	sts	0x0180, r24	; 0x800180 <ctrlAdc>
    1bc6:	83 e0       	ldi	r24, 0x03	; 3
    1bc8:	01 cf       	rjmp	.-510    	; 0x19cc <main+0x508>

00001bca <__udivmodhi4>:
    1bca:	aa 1b       	sub	r26, r26
    1bcc:	bb 1b       	sub	r27, r27
    1bce:	51 e1       	ldi	r21, 0x11	; 17
    1bd0:	07 c0       	rjmp	.+14     	; 0x1be0 <__udivmodhi4_ep>

00001bd2 <__udivmodhi4_loop>:
    1bd2:	aa 1f       	adc	r26, r26
    1bd4:	bb 1f       	adc	r27, r27
    1bd6:	a6 17       	cp	r26, r22
    1bd8:	b7 07       	cpc	r27, r23
    1bda:	10 f0       	brcs	.+4      	; 0x1be0 <__udivmodhi4_ep>
    1bdc:	a6 1b       	sub	r26, r22
    1bde:	b7 0b       	sbc	r27, r23

00001be0 <__udivmodhi4_ep>:
    1be0:	88 1f       	adc	r24, r24
    1be2:	99 1f       	adc	r25, r25
    1be4:	5a 95       	dec	r21
    1be6:	a9 f7       	brne	.-22     	; 0x1bd2 <__udivmodhi4_loop>
    1be8:	80 95       	com	r24
    1bea:	90 95       	com	r25
    1bec:	bc 01       	movw	r22, r24
    1bee:	cd 01       	movw	r24, r26
    1bf0:	08 95       	ret

00001bf2 <__udivmodsi4>:
    1bf2:	a1 e2       	ldi	r26, 0x21	; 33
    1bf4:	1a 2e       	mov	r1, r26
    1bf6:	aa 1b       	sub	r26, r26
    1bf8:	bb 1b       	sub	r27, r27
    1bfa:	fd 01       	movw	r30, r26
    1bfc:	0d c0       	rjmp	.+26     	; 0x1c18 <__udivmodsi4_ep>

00001bfe <__udivmodsi4_loop>:
    1bfe:	aa 1f       	adc	r26, r26
    1c00:	bb 1f       	adc	r27, r27
    1c02:	ee 1f       	adc	r30, r30
    1c04:	ff 1f       	adc	r31, r31
    1c06:	a2 17       	cp	r26, r18
    1c08:	b3 07       	cpc	r27, r19
    1c0a:	e4 07       	cpc	r30, r20
    1c0c:	f5 07       	cpc	r31, r21
    1c0e:	20 f0       	brcs	.+8      	; 0x1c18 <__udivmodsi4_ep>
    1c10:	a2 1b       	sub	r26, r18
    1c12:	b3 0b       	sbc	r27, r19
    1c14:	e4 0b       	sbc	r30, r20
    1c16:	f5 0b       	sbc	r31, r21

00001c18 <__udivmodsi4_ep>:
    1c18:	66 1f       	adc	r22, r22
    1c1a:	77 1f       	adc	r23, r23
    1c1c:	88 1f       	adc	r24, r24
    1c1e:	99 1f       	adc	r25, r25
    1c20:	1a 94       	dec	r1
    1c22:	69 f7       	brne	.-38     	; 0x1bfe <__udivmodsi4_loop>
    1c24:	60 95       	com	r22
    1c26:	70 95       	com	r23
    1c28:	80 95       	com	r24
    1c2a:	90 95       	com	r25
    1c2c:	9b 01       	movw	r18, r22
    1c2e:	ac 01       	movw	r20, r24
    1c30:	bd 01       	movw	r22, r26
    1c32:	cf 01       	movw	r24, r30
    1c34:	08 95       	ret

00001c36 <__tablejump2__>:
    1c36:	ee 0f       	add	r30, r30
    1c38:	ff 1f       	adc	r31, r31
    1c3a:	05 90       	lpm	r0, Z+
    1c3c:	f4 91       	lpm	r31, Z
    1c3e:	e0 2d       	mov	r30, r0
    1c40:	09 94       	ijmp

00001c42 <__ashrdi3>:
    1c42:	97 fb       	bst	r25, 7
    1c44:	10 f8       	bld	r1, 0

00001c46 <__lshrdi3>:
    1c46:	16 94       	lsr	r1
    1c48:	00 08       	sbc	r0, r0
    1c4a:	0f 93       	push	r16
    1c4c:	08 30       	cpi	r16, 0x08	; 8
    1c4e:	98 f0       	brcs	.+38     	; 0x1c76 <__lshrdi3+0x30>
    1c50:	08 50       	subi	r16, 0x08	; 8
    1c52:	23 2f       	mov	r18, r19
    1c54:	34 2f       	mov	r19, r20
    1c56:	45 2f       	mov	r20, r21
    1c58:	56 2f       	mov	r21, r22
    1c5a:	67 2f       	mov	r22, r23
    1c5c:	78 2f       	mov	r23, r24
    1c5e:	89 2f       	mov	r24, r25
    1c60:	90 2d       	mov	r25, r0
    1c62:	f4 cf       	rjmp	.-24     	; 0x1c4c <__lshrdi3+0x6>
    1c64:	05 94       	asr	r0
    1c66:	97 95       	ror	r25
    1c68:	87 95       	ror	r24
    1c6a:	77 95       	ror	r23
    1c6c:	67 95       	ror	r22
    1c6e:	57 95       	ror	r21
    1c70:	47 95       	ror	r20
    1c72:	37 95       	ror	r19
    1c74:	27 95       	ror	r18
    1c76:	0a 95       	dec	r16
    1c78:	aa f7       	brpl	.-22     	; 0x1c64 <__lshrdi3+0x1e>
    1c7a:	0f 91       	pop	r16
    1c7c:	08 95       	ret

00001c7e <printf>:
    1c7e:	a0 e0       	ldi	r26, 0x00	; 0
    1c80:	b0 e0       	ldi	r27, 0x00	; 0
    1c82:	e5 e4       	ldi	r30, 0x45	; 69
    1c84:	fe e0       	ldi	r31, 0x0E	; 14
    1c86:	0c 94 0c 11 	jmp	0x2218	; 0x2218 <__prologue_saves__+0x20>
    1c8a:	ae 01       	movw	r20, r28
    1c8c:	4b 5f       	subi	r20, 0xFB	; 251
    1c8e:	5f 4f       	sbci	r21, 0xFF	; 255
    1c90:	fa 01       	movw	r30, r20
    1c92:	61 91       	ld	r22, Z+
    1c94:	71 91       	ld	r23, Z+
    1c96:	af 01       	movw	r20, r30
    1c98:	80 91 84 01 	lds	r24, 0x0184	; 0x800184 <__iob+0x2>
    1c9c:	90 91 85 01 	lds	r25, 0x0185	; 0x800185 <__iob+0x3>
    1ca0:	0e 94 85 0e 	call	0x1d0a	; 0x1d0a <vfprintf>
    1ca4:	e2 e0       	ldi	r30, 0x02	; 2
    1ca6:	0c 94 28 11 	jmp	0x2250	; 0x2250 <__epilogue_restores__+0x20>

00001caa <puts>:
    1caa:	0f 93       	push	r16
    1cac:	1f 93       	push	r17
    1cae:	cf 93       	push	r28
    1cb0:	df 93       	push	r29
    1cb2:	e0 91 84 01 	lds	r30, 0x0184	; 0x800184 <__iob+0x2>
    1cb6:	f0 91 85 01 	lds	r31, 0x0185	; 0x800185 <__iob+0x3>
    1cba:	23 81       	ldd	r18, Z+3	; 0x03
    1cbc:	21 ff       	sbrs	r18, 1
    1cbe:	1b c0       	rjmp	.+54     	; 0x1cf6 <puts+0x4c>
    1cc0:	8c 01       	movw	r16, r24
    1cc2:	d0 e0       	ldi	r29, 0x00	; 0
    1cc4:	c0 e0       	ldi	r28, 0x00	; 0
    1cc6:	f8 01       	movw	r30, r16
    1cc8:	81 91       	ld	r24, Z+
    1cca:	8f 01       	movw	r16, r30
    1ccc:	60 91 84 01 	lds	r22, 0x0184	; 0x800184 <__iob+0x2>
    1cd0:	70 91 85 01 	lds	r23, 0x0185	; 0x800185 <__iob+0x3>
    1cd4:	db 01       	movw	r26, r22
    1cd6:	18 96       	adiw	r26, 0x08	; 8
    1cd8:	ed 91       	ld	r30, X+
    1cda:	fc 91       	ld	r31, X
    1cdc:	19 97       	sbiw	r26, 0x09	; 9
    1cde:	88 23       	and	r24, r24
    1ce0:	31 f0       	breq	.+12     	; 0x1cee <puts+0x44>
    1ce2:	09 95       	icall
    1ce4:	89 2b       	or	r24, r25
    1ce6:	79 f3       	breq	.-34     	; 0x1cc6 <puts+0x1c>
    1ce8:	df ef       	ldi	r29, 0xFF	; 255
    1cea:	cf ef       	ldi	r28, 0xFF	; 255
    1cec:	ec cf       	rjmp	.-40     	; 0x1cc6 <puts+0x1c>
    1cee:	8a e0       	ldi	r24, 0x0A	; 10
    1cf0:	09 95       	icall
    1cf2:	89 2b       	or	r24, r25
    1cf4:	19 f0       	breq	.+6      	; 0x1cfc <puts+0x52>
    1cf6:	8f ef       	ldi	r24, 0xFF	; 255
    1cf8:	9f ef       	ldi	r25, 0xFF	; 255
    1cfa:	02 c0       	rjmp	.+4      	; 0x1d00 <puts+0x56>
    1cfc:	8d 2f       	mov	r24, r29
    1cfe:	9c 2f       	mov	r25, r28
    1d00:	df 91       	pop	r29
    1d02:	cf 91       	pop	r28
    1d04:	1f 91       	pop	r17
    1d06:	0f 91       	pop	r16
    1d08:	08 95       	ret

00001d0a <vfprintf>:
    1d0a:	ac e0       	ldi	r26, 0x0C	; 12
    1d0c:	b0 e0       	ldi	r27, 0x00	; 0
    1d0e:	eb e8       	ldi	r30, 0x8B	; 139
    1d10:	fe e0       	ldi	r31, 0x0E	; 14
    1d12:	0c 94 fc 10 	jmp	0x21f8	; 0x21f8 <__prologue_saves__>
    1d16:	6c 01       	movw	r12, r24
    1d18:	7b 01       	movw	r14, r22
    1d1a:	8a 01       	movw	r16, r20
    1d1c:	fc 01       	movw	r30, r24
    1d1e:	17 82       	std	Z+7, r1	; 0x07
    1d20:	16 82       	std	Z+6, r1	; 0x06
    1d22:	83 81       	ldd	r24, Z+3	; 0x03
    1d24:	81 ff       	sbrs	r24, 1
    1d26:	be c1       	rjmp	.+892    	; 0x20a4 <vfprintf+0x39a>
    1d28:	ce 01       	movw	r24, r28
    1d2a:	01 96       	adiw	r24, 0x01	; 1
    1d2c:	4c 01       	movw	r8, r24
    1d2e:	f6 01       	movw	r30, r12
    1d30:	93 81       	ldd	r25, Z+3	; 0x03
    1d32:	f7 01       	movw	r30, r14
    1d34:	93 fd       	sbrc	r25, 3
    1d36:	85 91       	lpm	r24, Z+
    1d38:	93 ff       	sbrs	r25, 3
    1d3a:	81 91       	ld	r24, Z+
    1d3c:	7f 01       	movw	r14, r30
    1d3e:	88 23       	and	r24, r24
    1d40:	09 f4       	brne	.+2      	; 0x1d44 <vfprintf+0x3a>
    1d42:	ac c1       	rjmp	.+856    	; 0x209c <vfprintf+0x392>
    1d44:	85 32       	cpi	r24, 0x25	; 37
    1d46:	39 f4       	brne	.+14     	; 0x1d56 <vfprintf+0x4c>
    1d48:	93 fd       	sbrc	r25, 3
    1d4a:	85 91       	lpm	r24, Z+
    1d4c:	93 ff       	sbrs	r25, 3
    1d4e:	81 91       	ld	r24, Z+
    1d50:	7f 01       	movw	r14, r30
    1d52:	85 32       	cpi	r24, 0x25	; 37
    1d54:	29 f4       	brne	.+10     	; 0x1d60 <vfprintf+0x56>
    1d56:	b6 01       	movw	r22, r12
    1d58:	90 e0       	ldi	r25, 0x00	; 0
    1d5a:	0e 94 6e 10 	call	0x20dc	; 0x20dc <fputc>
    1d5e:	e7 cf       	rjmp	.-50     	; 0x1d2e <vfprintf+0x24>
    1d60:	51 2c       	mov	r5, r1
    1d62:	31 2c       	mov	r3, r1
    1d64:	20 e0       	ldi	r18, 0x00	; 0
    1d66:	20 32       	cpi	r18, 0x20	; 32
    1d68:	a0 f4       	brcc	.+40     	; 0x1d92 <vfprintf+0x88>
    1d6a:	8b 32       	cpi	r24, 0x2B	; 43
    1d6c:	69 f0       	breq	.+26     	; 0x1d88 <vfprintf+0x7e>
    1d6e:	30 f4       	brcc	.+12     	; 0x1d7c <vfprintf+0x72>
    1d70:	80 32       	cpi	r24, 0x20	; 32
    1d72:	59 f0       	breq	.+22     	; 0x1d8a <vfprintf+0x80>
    1d74:	83 32       	cpi	r24, 0x23	; 35
    1d76:	69 f4       	brne	.+26     	; 0x1d92 <vfprintf+0x88>
    1d78:	20 61       	ori	r18, 0x10	; 16
    1d7a:	2c c0       	rjmp	.+88     	; 0x1dd4 <vfprintf+0xca>
    1d7c:	8d 32       	cpi	r24, 0x2D	; 45
    1d7e:	39 f0       	breq	.+14     	; 0x1d8e <vfprintf+0x84>
    1d80:	80 33       	cpi	r24, 0x30	; 48
    1d82:	39 f4       	brne	.+14     	; 0x1d92 <vfprintf+0x88>
    1d84:	21 60       	ori	r18, 0x01	; 1
    1d86:	26 c0       	rjmp	.+76     	; 0x1dd4 <vfprintf+0xca>
    1d88:	22 60       	ori	r18, 0x02	; 2
    1d8a:	24 60       	ori	r18, 0x04	; 4
    1d8c:	23 c0       	rjmp	.+70     	; 0x1dd4 <vfprintf+0xca>
    1d8e:	28 60       	ori	r18, 0x08	; 8
    1d90:	21 c0       	rjmp	.+66     	; 0x1dd4 <vfprintf+0xca>
    1d92:	27 fd       	sbrc	r18, 7
    1d94:	27 c0       	rjmp	.+78     	; 0x1de4 <vfprintf+0xda>
    1d96:	30 ed       	ldi	r19, 0xD0	; 208
    1d98:	38 0f       	add	r19, r24
    1d9a:	3a 30       	cpi	r19, 0x0A	; 10
    1d9c:	78 f4       	brcc	.+30     	; 0x1dbc <vfprintf+0xb2>
    1d9e:	26 ff       	sbrs	r18, 6
    1da0:	06 c0       	rjmp	.+12     	; 0x1dae <vfprintf+0xa4>
    1da2:	fa e0       	ldi	r31, 0x0A	; 10
    1da4:	5f 9e       	mul	r5, r31
    1da6:	30 0d       	add	r19, r0
    1da8:	11 24       	eor	r1, r1
    1daa:	53 2e       	mov	r5, r19
    1dac:	13 c0       	rjmp	.+38     	; 0x1dd4 <vfprintf+0xca>
    1dae:	8a e0       	ldi	r24, 0x0A	; 10
    1db0:	38 9e       	mul	r3, r24
    1db2:	30 0d       	add	r19, r0
    1db4:	11 24       	eor	r1, r1
    1db6:	33 2e       	mov	r3, r19
    1db8:	20 62       	ori	r18, 0x20	; 32
    1dba:	0c c0       	rjmp	.+24     	; 0x1dd4 <vfprintf+0xca>
    1dbc:	8e 32       	cpi	r24, 0x2E	; 46
    1dbe:	21 f4       	brne	.+8      	; 0x1dc8 <vfprintf+0xbe>
    1dc0:	26 fd       	sbrc	r18, 6
    1dc2:	6c c1       	rjmp	.+728    	; 0x209c <vfprintf+0x392>
    1dc4:	20 64       	ori	r18, 0x40	; 64
    1dc6:	06 c0       	rjmp	.+12     	; 0x1dd4 <vfprintf+0xca>
    1dc8:	8c 36       	cpi	r24, 0x6C	; 108
    1dca:	11 f4       	brne	.+4      	; 0x1dd0 <vfprintf+0xc6>
    1dcc:	20 68       	ori	r18, 0x80	; 128
    1dce:	02 c0       	rjmp	.+4      	; 0x1dd4 <vfprintf+0xca>
    1dd0:	88 36       	cpi	r24, 0x68	; 104
    1dd2:	41 f4       	brne	.+16     	; 0x1de4 <vfprintf+0xda>
    1dd4:	f7 01       	movw	r30, r14
    1dd6:	93 fd       	sbrc	r25, 3
    1dd8:	85 91       	lpm	r24, Z+
    1dda:	93 ff       	sbrs	r25, 3
    1ddc:	81 91       	ld	r24, Z+
    1dde:	7f 01       	movw	r14, r30
    1de0:	81 11       	cpse	r24, r1
    1de2:	c1 cf       	rjmp	.-126    	; 0x1d66 <vfprintf+0x5c>
    1de4:	98 2f       	mov	r25, r24
    1de6:	9f 7d       	andi	r25, 0xDF	; 223
    1de8:	95 54       	subi	r25, 0x45	; 69
    1dea:	93 30       	cpi	r25, 0x03	; 3
    1dec:	28 f4       	brcc	.+10     	; 0x1df8 <vfprintf+0xee>
    1dee:	0c 5f       	subi	r16, 0xFC	; 252
    1df0:	1f 4f       	sbci	r17, 0xFF	; 255
    1df2:	9f e3       	ldi	r25, 0x3F	; 63
    1df4:	99 83       	std	Y+1, r25	; 0x01
    1df6:	0d c0       	rjmp	.+26     	; 0x1e12 <vfprintf+0x108>
    1df8:	83 36       	cpi	r24, 0x63	; 99
    1dfa:	31 f0       	breq	.+12     	; 0x1e08 <vfprintf+0xfe>
    1dfc:	83 37       	cpi	r24, 0x73	; 115
    1dfe:	71 f0       	breq	.+28     	; 0x1e1c <vfprintf+0x112>
    1e00:	83 35       	cpi	r24, 0x53	; 83
    1e02:	09 f0       	breq	.+2      	; 0x1e06 <vfprintf+0xfc>
    1e04:	5b c0       	rjmp	.+182    	; 0x1ebc <vfprintf+0x1b2>
    1e06:	22 c0       	rjmp	.+68     	; 0x1e4c <vfprintf+0x142>
    1e08:	f8 01       	movw	r30, r16
    1e0a:	80 81       	ld	r24, Z
    1e0c:	89 83       	std	Y+1, r24	; 0x01
    1e0e:	0e 5f       	subi	r16, 0xFE	; 254
    1e10:	1f 4f       	sbci	r17, 0xFF	; 255
    1e12:	44 24       	eor	r4, r4
    1e14:	43 94       	inc	r4
    1e16:	51 2c       	mov	r5, r1
    1e18:	54 01       	movw	r10, r8
    1e1a:	15 c0       	rjmp	.+42     	; 0x1e46 <vfprintf+0x13c>
    1e1c:	38 01       	movw	r6, r16
    1e1e:	f2 e0       	ldi	r31, 0x02	; 2
    1e20:	6f 0e       	add	r6, r31
    1e22:	71 1c       	adc	r7, r1
    1e24:	f8 01       	movw	r30, r16
    1e26:	a0 80       	ld	r10, Z
    1e28:	b1 80       	ldd	r11, Z+1	; 0x01
    1e2a:	26 ff       	sbrs	r18, 6
    1e2c:	03 c0       	rjmp	.+6      	; 0x1e34 <vfprintf+0x12a>
    1e2e:	65 2d       	mov	r22, r5
    1e30:	70 e0       	ldi	r23, 0x00	; 0
    1e32:	02 c0       	rjmp	.+4      	; 0x1e38 <vfprintf+0x12e>
    1e34:	6f ef       	ldi	r22, 0xFF	; 255
    1e36:	7f ef       	ldi	r23, 0xFF	; 255
    1e38:	c5 01       	movw	r24, r10
    1e3a:	2c 87       	std	Y+12, r18	; 0x0c
    1e3c:	0e 94 63 10 	call	0x20c6	; 0x20c6 <strnlen>
    1e40:	2c 01       	movw	r4, r24
    1e42:	83 01       	movw	r16, r6
    1e44:	2c 85       	ldd	r18, Y+12	; 0x0c
    1e46:	2f 77       	andi	r18, 0x7F	; 127
    1e48:	22 2e       	mov	r2, r18
    1e4a:	17 c0       	rjmp	.+46     	; 0x1e7a <vfprintf+0x170>
    1e4c:	38 01       	movw	r6, r16
    1e4e:	f2 e0       	ldi	r31, 0x02	; 2
    1e50:	6f 0e       	add	r6, r31
    1e52:	71 1c       	adc	r7, r1
    1e54:	f8 01       	movw	r30, r16
    1e56:	a0 80       	ld	r10, Z
    1e58:	b1 80       	ldd	r11, Z+1	; 0x01
    1e5a:	26 ff       	sbrs	r18, 6
    1e5c:	03 c0       	rjmp	.+6      	; 0x1e64 <vfprintf+0x15a>
    1e5e:	65 2d       	mov	r22, r5
    1e60:	70 e0       	ldi	r23, 0x00	; 0
    1e62:	02 c0       	rjmp	.+4      	; 0x1e68 <vfprintf+0x15e>
    1e64:	6f ef       	ldi	r22, 0xFF	; 255
    1e66:	7f ef       	ldi	r23, 0xFF	; 255
    1e68:	c5 01       	movw	r24, r10
    1e6a:	2c 87       	std	Y+12, r18	; 0x0c
    1e6c:	0e 94 58 10 	call	0x20b0	; 0x20b0 <strnlen_P>
    1e70:	2c 01       	movw	r4, r24
    1e72:	2c 85       	ldd	r18, Y+12	; 0x0c
    1e74:	20 68       	ori	r18, 0x80	; 128
    1e76:	22 2e       	mov	r2, r18
    1e78:	83 01       	movw	r16, r6
    1e7a:	23 fc       	sbrc	r2, 3
    1e7c:	1b c0       	rjmp	.+54     	; 0x1eb4 <vfprintf+0x1aa>
    1e7e:	83 2d       	mov	r24, r3
    1e80:	90 e0       	ldi	r25, 0x00	; 0
    1e82:	48 16       	cp	r4, r24
    1e84:	59 06       	cpc	r5, r25
    1e86:	b0 f4       	brcc	.+44     	; 0x1eb4 <vfprintf+0x1aa>
    1e88:	b6 01       	movw	r22, r12
    1e8a:	80 e2       	ldi	r24, 0x20	; 32
    1e8c:	90 e0       	ldi	r25, 0x00	; 0
    1e8e:	0e 94 6e 10 	call	0x20dc	; 0x20dc <fputc>
    1e92:	3a 94       	dec	r3
    1e94:	f4 cf       	rjmp	.-24     	; 0x1e7e <vfprintf+0x174>
    1e96:	f5 01       	movw	r30, r10
    1e98:	27 fc       	sbrc	r2, 7
    1e9a:	85 91       	lpm	r24, Z+
    1e9c:	27 fe       	sbrs	r2, 7
    1e9e:	81 91       	ld	r24, Z+
    1ea0:	5f 01       	movw	r10, r30
    1ea2:	b6 01       	movw	r22, r12
    1ea4:	90 e0       	ldi	r25, 0x00	; 0
    1ea6:	0e 94 6e 10 	call	0x20dc	; 0x20dc <fputc>
    1eaa:	31 10       	cpse	r3, r1
    1eac:	3a 94       	dec	r3
    1eae:	f1 e0       	ldi	r31, 0x01	; 1
    1eb0:	4f 1a       	sub	r4, r31
    1eb2:	51 08       	sbc	r5, r1
    1eb4:	41 14       	cp	r4, r1
    1eb6:	51 04       	cpc	r5, r1
    1eb8:	71 f7       	brne	.-36     	; 0x1e96 <vfprintf+0x18c>
    1eba:	e6 c0       	rjmp	.+460    	; 0x2088 <vfprintf+0x37e>
    1ebc:	84 36       	cpi	r24, 0x64	; 100
    1ebe:	11 f0       	breq	.+4      	; 0x1ec4 <vfprintf+0x1ba>
    1ec0:	89 36       	cpi	r24, 0x69	; 105
    1ec2:	39 f5       	brne	.+78     	; 0x1f12 <vfprintf+0x208>
    1ec4:	f8 01       	movw	r30, r16
    1ec6:	27 ff       	sbrs	r18, 7
    1ec8:	07 c0       	rjmp	.+14     	; 0x1ed8 <vfprintf+0x1ce>
    1eca:	60 81       	ld	r22, Z
    1ecc:	71 81       	ldd	r23, Z+1	; 0x01
    1ece:	82 81       	ldd	r24, Z+2	; 0x02
    1ed0:	93 81       	ldd	r25, Z+3	; 0x03
    1ed2:	0c 5f       	subi	r16, 0xFC	; 252
    1ed4:	1f 4f       	sbci	r17, 0xFF	; 255
    1ed6:	08 c0       	rjmp	.+16     	; 0x1ee8 <vfprintf+0x1de>
    1ed8:	60 81       	ld	r22, Z
    1eda:	71 81       	ldd	r23, Z+1	; 0x01
    1edc:	07 2e       	mov	r0, r23
    1ede:	00 0c       	add	r0, r0
    1ee0:	88 0b       	sbc	r24, r24
    1ee2:	99 0b       	sbc	r25, r25
    1ee4:	0e 5f       	subi	r16, 0xFE	; 254
    1ee6:	1f 4f       	sbci	r17, 0xFF	; 255
    1ee8:	2f 76       	andi	r18, 0x6F	; 111
    1eea:	72 2e       	mov	r7, r18
    1eec:	97 ff       	sbrs	r25, 7
    1eee:	09 c0       	rjmp	.+18     	; 0x1f02 <vfprintf+0x1f8>
    1ef0:	90 95       	com	r25
    1ef2:	80 95       	com	r24
    1ef4:	70 95       	com	r23
    1ef6:	61 95       	neg	r22
    1ef8:	7f 4f       	sbci	r23, 0xFF	; 255
    1efa:	8f 4f       	sbci	r24, 0xFF	; 255
    1efc:	9f 4f       	sbci	r25, 0xFF	; 255
    1efe:	20 68       	ori	r18, 0x80	; 128
    1f00:	72 2e       	mov	r7, r18
    1f02:	2a e0       	ldi	r18, 0x0A	; 10
    1f04:	30 e0       	ldi	r19, 0x00	; 0
    1f06:	a4 01       	movw	r20, r8
    1f08:	0e 94 9e 10 	call	0x213c	; 0x213c <__ultoa_invert>
    1f0c:	a8 2e       	mov	r10, r24
    1f0e:	a8 18       	sub	r10, r8
    1f10:	44 c0       	rjmp	.+136    	; 0x1f9a <vfprintf+0x290>
    1f12:	85 37       	cpi	r24, 0x75	; 117
    1f14:	29 f4       	brne	.+10     	; 0x1f20 <vfprintf+0x216>
    1f16:	2f 7e       	andi	r18, 0xEF	; 239
    1f18:	b2 2e       	mov	r11, r18
    1f1a:	2a e0       	ldi	r18, 0x0A	; 10
    1f1c:	30 e0       	ldi	r19, 0x00	; 0
    1f1e:	25 c0       	rjmp	.+74     	; 0x1f6a <vfprintf+0x260>
    1f20:	f2 2f       	mov	r31, r18
    1f22:	f9 7f       	andi	r31, 0xF9	; 249
    1f24:	bf 2e       	mov	r11, r31
    1f26:	8f 36       	cpi	r24, 0x6F	; 111
    1f28:	c1 f0       	breq	.+48     	; 0x1f5a <vfprintf+0x250>
    1f2a:	18 f4       	brcc	.+6      	; 0x1f32 <vfprintf+0x228>
    1f2c:	88 35       	cpi	r24, 0x58	; 88
    1f2e:	79 f0       	breq	.+30     	; 0x1f4e <vfprintf+0x244>
    1f30:	b5 c0       	rjmp	.+362    	; 0x209c <vfprintf+0x392>
    1f32:	80 37       	cpi	r24, 0x70	; 112
    1f34:	19 f0       	breq	.+6      	; 0x1f3c <vfprintf+0x232>
    1f36:	88 37       	cpi	r24, 0x78	; 120
    1f38:	21 f0       	breq	.+8      	; 0x1f42 <vfprintf+0x238>
    1f3a:	b0 c0       	rjmp	.+352    	; 0x209c <vfprintf+0x392>
    1f3c:	2f 2f       	mov	r18, r31
    1f3e:	20 61       	ori	r18, 0x10	; 16
    1f40:	b2 2e       	mov	r11, r18
    1f42:	b4 fe       	sbrs	r11, 4
    1f44:	0d c0       	rjmp	.+26     	; 0x1f60 <vfprintf+0x256>
    1f46:	8b 2d       	mov	r24, r11
    1f48:	84 60       	ori	r24, 0x04	; 4
    1f4a:	b8 2e       	mov	r11, r24
    1f4c:	09 c0       	rjmp	.+18     	; 0x1f60 <vfprintf+0x256>
    1f4e:	24 ff       	sbrs	r18, 4
    1f50:	0a c0       	rjmp	.+20     	; 0x1f66 <vfprintf+0x25c>
    1f52:	9f 2f       	mov	r25, r31
    1f54:	96 60       	ori	r25, 0x06	; 6
    1f56:	b9 2e       	mov	r11, r25
    1f58:	06 c0       	rjmp	.+12     	; 0x1f66 <vfprintf+0x25c>
    1f5a:	28 e0       	ldi	r18, 0x08	; 8
    1f5c:	30 e0       	ldi	r19, 0x00	; 0
    1f5e:	05 c0       	rjmp	.+10     	; 0x1f6a <vfprintf+0x260>
    1f60:	20 e1       	ldi	r18, 0x10	; 16
    1f62:	30 e0       	ldi	r19, 0x00	; 0
    1f64:	02 c0       	rjmp	.+4      	; 0x1f6a <vfprintf+0x260>
    1f66:	20 e1       	ldi	r18, 0x10	; 16
    1f68:	32 e0       	ldi	r19, 0x02	; 2
    1f6a:	f8 01       	movw	r30, r16
    1f6c:	b7 fe       	sbrs	r11, 7
    1f6e:	07 c0       	rjmp	.+14     	; 0x1f7e <vfprintf+0x274>
    1f70:	60 81       	ld	r22, Z
    1f72:	71 81       	ldd	r23, Z+1	; 0x01
    1f74:	82 81       	ldd	r24, Z+2	; 0x02
    1f76:	93 81       	ldd	r25, Z+3	; 0x03
    1f78:	0c 5f       	subi	r16, 0xFC	; 252
    1f7a:	1f 4f       	sbci	r17, 0xFF	; 255
    1f7c:	06 c0       	rjmp	.+12     	; 0x1f8a <vfprintf+0x280>
    1f7e:	60 81       	ld	r22, Z
    1f80:	71 81       	ldd	r23, Z+1	; 0x01
    1f82:	80 e0       	ldi	r24, 0x00	; 0
    1f84:	90 e0       	ldi	r25, 0x00	; 0
    1f86:	0e 5f       	subi	r16, 0xFE	; 254
    1f88:	1f 4f       	sbci	r17, 0xFF	; 255
    1f8a:	a4 01       	movw	r20, r8
    1f8c:	0e 94 9e 10 	call	0x213c	; 0x213c <__ultoa_invert>
    1f90:	a8 2e       	mov	r10, r24
    1f92:	a8 18       	sub	r10, r8
    1f94:	fb 2d       	mov	r31, r11
    1f96:	ff 77       	andi	r31, 0x7F	; 127
    1f98:	7f 2e       	mov	r7, r31
    1f9a:	76 fe       	sbrs	r7, 6
    1f9c:	0b c0       	rjmp	.+22     	; 0x1fb4 <vfprintf+0x2aa>
    1f9e:	37 2d       	mov	r19, r7
    1fa0:	3e 7f       	andi	r19, 0xFE	; 254
    1fa2:	a5 14       	cp	r10, r5
    1fa4:	50 f4       	brcc	.+20     	; 0x1fba <vfprintf+0x2b0>
    1fa6:	74 fe       	sbrs	r7, 4
    1fa8:	0a c0       	rjmp	.+20     	; 0x1fbe <vfprintf+0x2b4>
    1faa:	72 fc       	sbrc	r7, 2
    1fac:	08 c0       	rjmp	.+16     	; 0x1fbe <vfprintf+0x2b4>
    1fae:	37 2d       	mov	r19, r7
    1fb0:	3e 7e       	andi	r19, 0xEE	; 238
    1fb2:	05 c0       	rjmp	.+10     	; 0x1fbe <vfprintf+0x2b4>
    1fb4:	ba 2c       	mov	r11, r10
    1fb6:	37 2d       	mov	r19, r7
    1fb8:	03 c0       	rjmp	.+6      	; 0x1fc0 <vfprintf+0x2b6>
    1fba:	ba 2c       	mov	r11, r10
    1fbc:	01 c0       	rjmp	.+2      	; 0x1fc0 <vfprintf+0x2b6>
    1fbe:	b5 2c       	mov	r11, r5
    1fc0:	34 ff       	sbrs	r19, 4
    1fc2:	0d c0       	rjmp	.+26     	; 0x1fde <vfprintf+0x2d4>
    1fc4:	fe 01       	movw	r30, r28
    1fc6:	ea 0d       	add	r30, r10
    1fc8:	f1 1d       	adc	r31, r1
    1fca:	80 81       	ld	r24, Z
    1fcc:	80 33       	cpi	r24, 0x30	; 48
    1fce:	11 f4       	brne	.+4      	; 0x1fd4 <vfprintf+0x2ca>
    1fd0:	39 7e       	andi	r19, 0xE9	; 233
    1fd2:	09 c0       	rjmp	.+18     	; 0x1fe6 <vfprintf+0x2dc>
    1fd4:	32 ff       	sbrs	r19, 2
    1fd6:	06 c0       	rjmp	.+12     	; 0x1fe4 <vfprintf+0x2da>
    1fd8:	b3 94       	inc	r11
    1fda:	b3 94       	inc	r11
    1fdc:	04 c0       	rjmp	.+8      	; 0x1fe6 <vfprintf+0x2dc>
    1fde:	83 2f       	mov	r24, r19
    1fe0:	86 78       	andi	r24, 0x86	; 134
    1fe2:	09 f0       	breq	.+2      	; 0x1fe6 <vfprintf+0x2dc>
    1fe4:	b3 94       	inc	r11
    1fe6:	33 fd       	sbrc	r19, 3
    1fe8:	13 c0       	rjmp	.+38     	; 0x2010 <vfprintf+0x306>
    1fea:	30 ff       	sbrs	r19, 0
    1fec:	06 c0       	rjmp	.+12     	; 0x1ffa <vfprintf+0x2f0>
    1fee:	b3 14       	cp	r11, r3
    1ff0:	98 f4       	brcc	.+38     	; 0x2018 <vfprintf+0x30e>
    1ff2:	3a 0c       	add	r3, r10
    1ff4:	53 2c       	mov	r5, r3
    1ff6:	5b 18       	sub	r5, r11
    1ff8:	10 c0       	rjmp	.+32     	; 0x201a <vfprintf+0x310>
    1ffa:	b3 14       	cp	r11, r3
    1ffc:	70 f4       	brcc	.+28     	; 0x201a <vfprintf+0x310>
    1ffe:	b6 01       	movw	r22, r12
    2000:	80 e2       	ldi	r24, 0x20	; 32
    2002:	90 e0       	ldi	r25, 0x00	; 0
    2004:	3c 87       	std	Y+12, r19	; 0x0c
    2006:	0e 94 6e 10 	call	0x20dc	; 0x20dc <fputc>
    200a:	b3 94       	inc	r11
    200c:	3c 85       	ldd	r19, Y+12	; 0x0c
    200e:	f5 cf       	rjmp	.-22     	; 0x1ffa <vfprintf+0x2f0>
    2010:	b3 14       	cp	r11, r3
    2012:	18 f4       	brcc	.+6      	; 0x201a <vfprintf+0x310>
    2014:	3b 18       	sub	r3, r11
    2016:	02 c0       	rjmp	.+4      	; 0x201c <vfprintf+0x312>
    2018:	5a 2c       	mov	r5, r10
    201a:	31 2c       	mov	r3, r1
    201c:	34 ff       	sbrs	r19, 4
    201e:	12 c0       	rjmp	.+36     	; 0x2044 <vfprintf+0x33a>
    2020:	b6 01       	movw	r22, r12
    2022:	80 e3       	ldi	r24, 0x30	; 48
    2024:	90 e0       	ldi	r25, 0x00	; 0
    2026:	3c 87       	std	Y+12, r19	; 0x0c
    2028:	0e 94 6e 10 	call	0x20dc	; 0x20dc <fputc>
    202c:	3c 85       	ldd	r19, Y+12	; 0x0c
    202e:	32 ff       	sbrs	r19, 2
    2030:	17 c0       	rjmp	.+46     	; 0x2060 <vfprintf+0x356>
    2032:	31 fd       	sbrc	r19, 1
    2034:	03 c0       	rjmp	.+6      	; 0x203c <vfprintf+0x332>
    2036:	88 e7       	ldi	r24, 0x78	; 120
    2038:	90 e0       	ldi	r25, 0x00	; 0
    203a:	02 c0       	rjmp	.+4      	; 0x2040 <vfprintf+0x336>
    203c:	88 e5       	ldi	r24, 0x58	; 88
    203e:	90 e0       	ldi	r25, 0x00	; 0
    2040:	b6 01       	movw	r22, r12
    2042:	0c c0       	rjmp	.+24     	; 0x205c <vfprintf+0x352>
    2044:	83 2f       	mov	r24, r19
    2046:	86 78       	andi	r24, 0x86	; 134
    2048:	59 f0       	breq	.+22     	; 0x2060 <vfprintf+0x356>
    204a:	31 ff       	sbrs	r19, 1
    204c:	02 c0       	rjmp	.+4      	; 0x2052 <vfprintf+0x348>
    204e:	8b e2       	ldi	r24, 0x2B	; 43
    2050:	01 c0       	rjmp	.+2      	; 0x2054 <vfprintf+0x34a>
    2052:	80 e2       	ldi	r24, 0x20	; 32
    2054:	37 fd       	sbrc	r19, 7
    2056:	8d e2       	ldi	r24, 0x2D	; 45
    2058:	b6 01       	movw	r22, r12
    205a:	90 e0       	ldi	r25, 0x00	; 0
    205c:	0e 94 6e 10 	call	0x20dc	; 0x20dc <fputc>
    2060:	a5 14       	cp	r10, r5
    2062:	38 f4       	brcc	.+14     	; 0x2072 <vfprintf+0x368>
    2064:	b6 01       	movw	r22, r12
    2066:	80 e3       	ldi	r24, 0x30	; 48
    2068:	90 e0       	ldi	r25, 0x00	; 0
    206a:	0e 94 6e 10 	call	0x20dc	; 0x20dc <fputc>
    206e:	5a 94       	dec	r5
    2070:	f7 cf       	rjmp	.-18     	; 0x2060 <vfprintf+0x356>
    2072:	aa 94       	dec	r10
    2074:	f4 01       	movw	r30, r8
    2076:	ea 0d       	add	r30, r10
    2078:	f1 1d       	adc	r31, r1
    207a:	80 81       	ld	r24, Z
    207c:	b6 01       	movw	r22, r12
    207e:	90 e0       	ldi	r25, 0x00	; 0
    2080:	0e 94 6e 10 	call	0x20dc	; 0x20dc <fputc>
    2084:	a1 10       	cpse	r10, r1
    2086:	f5 cf       	rjmp	.-22     	; 0x2072 <vfprintf+0x368>
    2088:	33 20       	and	r3, r3
    208a:	09 f4       	brne	.+2      	; 0x208e <vfprintf+0x384>
    208c:	50 ce       	rjmp	.-864    	; 0x1d2e <vfprintf+0x24>
    208e:	b6 01       	movw	r22, r12
    2090:	80 e2       	ldi	r24, 0x20	; 32
    2092:	90 e0       	ldi	r25, 0x00	; 0
    2094:	0e 94 6e 10 	call	0x20dc	; 0x20dc <fputc>
    2098:	3a 94       	dec	r3
    209a:	f6 cf       	rjmp	.-20     	; 0x2088 <vfprintf+0x37e>
    209c:	f6 01       	movw	r30, r12
    209e:	86 81       	ldd	r24, Z+6	; 0x06
    20a0:	97 81       	ldd	r25, Z+7	; 0x07
    20a2:	02 c0       	rjmp	.+4      	; 0x20a8 <vfprintf+0x39e>
    20a4:	8f ef       	ldi	r24, 0xFF	; 255
    20a6:	9f ef       	ldi	r25, 0xFF	; 255
    20a8:	2c 96       	adiw	r28, 0x0c	; 12
    20aa:	e2 e1       	ldi	r30, 0x12	; 18
    20ac:	0c 94 18 11 	jmp	0x2230	; 0x2230 <__epilogue_restores__>

000020b0 <strnlen_P>:
    20b0:	fc 01       	movw	r30, r24
    20b2:	05 90       	lpm	r0, Z+
    20b4:	61 50       	subi	r22, 0x01	; 1
    20b6:	70 40       	sbci	r23, 0x00	; 0
    20b8:	01 10       	cpse	r0, r1
    20ba:	d8 f7       	brcc	.-10     	; 0x20b2 <strnlen_P+0x2>
    20bc:	80 95       	com	r24
    20be:	90 95       	com	r25
    20c0:	8e 0f       	add	r24, r30
    20c2:	9f 1f       	adc	r25, r31
    20c4:	08 95       	ret

000020c6 <strnlen>:
    20c6:	fc 01       	movw	r30, r24
    20c8:	61 50       	subi	r22, 0x01	; 1
    20ca:	70 40       	sbci	r23, 0x00	; 0
    20cc:	01 90       	ld	r0, Z+
    20ce:	01 10       	cpse	r0, r1
    20d0:	d8 f7       	brcc	.-10     	; 0x20c8 <strnlen+0x2>
    20d2:	80 95       	com	r24
    20d4:	90 95       	com	r25
    20d6:	8e 0f       	add	r24, r30
    20d8:	9f 1f       	adc	r25, r31
    20da:	08 95       	ret

000020dc <fputc>:
    20dc:	0f 93       	push	r16
    20de:	1f 93       	push	r17
    20e0:	cf 93       	push	r28
    20e2:	df 93       	push	r29
    20e4:	18 2f       	mov	r17, r24
    20e6:	09 2f       	mov	r16, r25
    20e8:	eb 01       	movw	r28, r22
    20ea:	8b 81       	ldd	r24, Y+3	; 0x03
    20ec:	81 fd       	sbrc	r24, 1
    20ee:	03 c0       	rjmp	.+6      	; 0x20f6 <fputc+0x1a>
    20f0:	8f ef       	ldi	r24, 0xFF	; 255
    20f2:	9f ef       	ldi	r25, 0xFF	; 255
    20f4:	1e c0       	rjmp	.+60     	; 0x2132 <fputc+0x56>
    20f6:	82 ff       	sbrs	r24, 2
    20f8:	0f c0       	rjmp	.+30     	; 0x2118 <fputc+0x3c>
    20fa:	2e 81       	ldd	r18, Y+6	; 0x06
    20fc:	3f 81       	ldd	r19, Y+7	; 0x07
    20fe:	8c 81       	ldd	r24, Y+4	; 0x04
    2100:	9d 81       	ldd	r25, Y+5	; 0x05
    2102:	28 17       	cp	r18, r24
    2104:	39 07       	cpc	r19, r25
    2106:	74 f4       	brge	.+28     	; 0x2124 <fputc+0x48>
    2108:	e8 81       	ld	r30, Y
    210a:	f9 81       	ldd	r31, Y+1	; 0x01
    210c:	cf 01       	movw	r24, r30
    210e:	01 96       	adiw	r24, 0x01	; 1
    2110:	99 83       	std	Y+1, r25	; 0x01
    2112:	88 83       	st	Y, r24
    2114:	10 83       	st	Z, r17
    2116:	06 c0       	rjmp	.+12     	; 0x2124 <fputc+0x48>
    2118:	e8 85       	ldd	r30, Y+8	; 0x08
    211a:	f9 85       	ldd	r31, Y+9	; 0x09
    211c:	81 2f       	mov	r24, r17
    211e:	09 95       	icall
    2120:	89 2b       	or	r24, r25
    2122:	31 f7       	brne	.-52     	; 0x20f0 <fputc+0x14>
    2124:	8e 81       	ldd	r24, Y+6	; 0x06
    2126:	9f 81       	ldd	r25, Y+7	; 0x07
    2128:	01 96       	adiw	r24, 0x01	; 1
    212a:	9f 83       	std	Y+7, r25	; 0x07
    212c:	8e 83       	std	Y+6, r24	; 0x06
    212e:	81 2f       	mov	r24, r17
    2130:	90 2f       	mov	r25, r16
    2132:	df 91       	pop	r29
    2134:	cf 91       	pop	r28
    2136:	1f 91       	pop	r17
    2138:	0f 91       	pop	r16
    213a:	08 95       	ret

0000213c <__ultoa_invert>:
    213c:	fa 01       	movw	r30, r20
    213e:	aa 27       	eor	r26, r26
    2140:	28 30       	cpi	r18, 0x08	; 8
    2142:	51 f1       	breq	.+84     	; 0x2198 <__ultoa_invert+0x5c>
    2144:	20 31       	cpi	r18, 0x10	; 16
    2146:	81 f1       	breq	.+96     	; 0x21a8 <__ultoa_invert+0x6c>
    2148:	e8 94       	clt
    214a:	6f 93       	push	r22
    214c:	6e 7f       	andi	r22, 0xFE	; 254
    214e:	6e 5f       	subi	r22, 0xFE	; 254
    2150:	7f 4f       	sbci	r23, 0xFF	; 255
    2152:	8f 4f       	sbci	r24, 0xFF	; 255
    2154:	9f 4f       	sbci	r25, 0xFF	; 255
    2156:	af 4f       	sbci	r26, 0xFF	; 255
    2158:	b1 e0       	ldi	r27, 0x01	; 1
    215a:	3e d0       	rcall	.+124    	; 0x21d8 <__ultoa_invert+0x9c>
    215c:	b4 e0       	ldi	r27, 0x04	; 4
    215e:	3c d0       	rcall	.+120    	; 0x21d8 <__ultoa_invert+0x9c>
    2160:	67 0f       	add	r22, r23
    2162:	78 1f       	adc	r23, r24
    2164:	89 1f       	adc	r24, r25
    2166:	9a 1f       	adc	r25, r26
    2168:	a1 1d       	adc	r26, r1
    216a:	68 0f       	add	r22, r24
    216c:	79 1f       	adc	r23, r25
    216e:	8a 1f       	adc	r24, r26
    2170:	91 1d       	adc	r25, r1
    2172:	a1 1d       	adc	r26, r1
    2174:	6a 0f       	add	r22, r26
    2176:	71 1d       	adc	r23, r1
    2178:	81 1d       	adc	r24, r1
    217a:	91 1d       	adc	r25, r1
    217c:	a1 1d       	adc	r26, r1
    217e:	20 d0       	rcall	.+64     	; 0x21c0 <__ultoa_invert+0x84>
    2180:	09 f4       	brne	.+2      	; 0x2184 <__ultoa_invert+0x48>
    2182:	68 94       	set
    2184:	3f 91       	pop	r19
    2186:	2a e0       	ldi	r18, 0x0A	; 10
    2188:	26 9f       	mul	r18, r22
    218a:	11 24       	eor	r1, r1
    218c:	30 19       	sub	r19, r0
    218e:	30 5d       	subi	r19, 0xD0	; 208
    2190:	31 93       	st	Z+, r19
    2192:	de f6       	brtc	.-74     	; 0x214a <__ultoa_invert+0xe>
    2194:	cf 01       	movw	r24, r30
    2196:	08 95       	ret
    2198:	46 2f       	mov	r20, r22
    219a:	47 70       	andi	r20, 0x07	; 7
    219c:	40 5d       	subi	r20, 0xD0	; 208
    219e:	41 93       	st	Z+, r20
    21a0:	b3 e0       	ldi	r27, 0x03	; 3
    21a2:	0f d0       	rcall	.+30     	; 0x21c2 <__ultoa_invert+0x86>
    21a4:	c9 f7       	brne	.-14     	; 0x2198 <__ultoa_invert+0x5c>
    21a6:	f6 cf       	rjmp	.-20     	; 0x2194 <__ultoa_invert+0x58>
    21a8:	46 2f       	mov	r20, r22
    21aa:	4f 70       	andi	r20, 0x0F	; 15
    21ac:	40 5d       	subi	r20, 0xD0	; 208
    21ae:	4a 33       	cpi	r20, 0x3A	; 58
    21b0:	18 f0       	brcs	.+6      	; 0x21b8 <__ultoa_invert+0x7c>
    21b2:	49 5d       	subi	r20, 0xD9	; 217
    21b4:	31 fd       	sbrc	r19, 1
    21b6:	40 52       	subi	r20, 0x20	; 32
    21b8:	41 93       	st	Z+, r20
    21ba:	02 d0       	rcall	.+4      	; 0x21c0 <__ultoa_invert+0x84>
    21bc:	a9 f7       	brne	.-22     	; 0x21a8 <__ultoa_invert+0x6c>
    21be:	ea cf       	rjmp	.-44     	; 0x2194 <__ultoa_invert+0x58>
    21c0:	b4 e0       	ldi	r27, 0x04	; 4
    21c2:	a6 95       	lsr	r26
    21c4:	97 95       	ror	r25
    21c6:	87 95       	ror	r24
    21c8:	77 95       	ror	r23
    21ca:	67 95       	ror	r22
    21cc:	ba 95       	dec	r27
    21ce:	c9 f7       	brne	.-14     	; 0x21c2 <__ultoa_invert+0x86>
    21d0:	00 97       	sbiw	r24, 0x00	; 0
    21d2:	61 05       	cpc	r22, r1
    21d4:	71 05       	cpc	r23, r1
    21d6:	08 95       	ret
    21d8:	9b 01       	movw	r18, r22
    21da:	ac 01       	movw	r20, r24
    21dc:	0a 2e       	mov	r0, r26
    21de:	06 94       	lsr	r0
    21e0:	57 95       	ror	r21
    21e2:	47 95       	ror	r20
    21e4:	37 95       	ror	r19
    21e6:	27 95       	ror	r18
    21e8:	ba 95       	dec	r27
    21ea:	c9 f7       	brne	.-14     	; 0x21de <__ultoa_invert+0xa2>
    21ec:	62 0f       	add	r22, r18
    21ee:	73 1f       	adc	r23, r19
    21f0:	84 1f       	adc	r24, r20
    21f2:	95 1f       	adc	r25, r21
    21f4:	a0 1d       	adc	r26, r0
    21f6:	08 95       	ret

000021f8 <__prologue_saves__>:
    21f8:	2f 92       	push	r2
    21fa:	3f 92       	push	r3
    21fc:	4f 92       	push	r4
    21fe:	5f 92       	push	r5
    2200:	6f 92       	push	r6
    2202:	7f 92       	push	r7
    2204:	8f 92       	push	r8
    2206:	9f 92       	push	r9
    2208:	af 92       	push	r10
    220a:	bf 92       	push	r11
    220c:	cf 92       	push	r12
    220e:	df 92       	push	r13
    2210:	ef 92       	push	r14
    2212:	ff 92       	push	r15
    2214:	0f 93       	push	r16
    2216:	1f 93       	push	r17
    2218:	cf 93       	push	r28
    221a:	df 93       	push	r29
    221c:	cd b7       	in	r28, 0x3d	; 61
    221e:	de b7       	in	r29, 0x3e	; 62
    2220:	ca 1b       	sub	r28, r26
    2222:	db 0b       	sbc	r29, r27
    2224:	0f b6       	in	r0, 0x3f	; 63
    2226:	f8 94       	cli
    2228:	de bf       	out	0x3e, r29	; 62
    222a:	0f be       	out	0x3f, r0	; 63
    222c:	cd bf       	out	0x3d, r28	; 61
    222e:	09 94       	ijmp

00002230 <__epilogue_restores__>:
    2230:	2a 88       	ldd	r2, Y+18	; 0x12
    2232:	39 88       	ldd	r3, Y+17	; 0x11
    2234:	48 88       	ldd	r4, Y+16	; 0x10
    2236:	5f 84       	ldd	r5, Y+15	; 0x0f
    2238:	6e 84       	ldd	r6, Y+14	; 0x0e
    223a:	7d 84       	ldd	r7, Y+13	; 0x0d
    223c:	8c 84       	ldd	r8, Y+12	; 0x0c
    223e:	9b 84       	ldd	r9, Y+11	; 0x0b
    2240:	aa 84       	ldd	r10, Y+10	; 0x0a
    2242:	b9 84       	ldd	r11, Y+9	; 0x09
    2244:	c8 84       	ldd	r12, Y+8	; 0x08
    2246:	df 80       	ldd	r13, Y+7	; 0x07
    2248:	ee 80       	ldd	r14, Y+6	; 0x06
    224a:	fd 80       	ldd	r15, Y+5	; 0x05
    224c:	0c 81       	ldd	r16, Y+4	; 0x04
    224e:	1b 81       	ldd	r17, Y+3	; 0x03
    2250:	aa 81       	ldd	r26, Y+2	; 0x02
    2252:	b9 81       	ldd	r27, Y+1	; 0x01
    2254:	ce 0f       	add	r28, r30
    2256:	d1 1d       	adc	r29, r1
    2258:	0f b6       	in	r0, 0x3f	; 63
    225a:	f8 94       	cli
    225c:	de bf       	out	0x3e, r29	; 62
    225e:	0f be       	out	0x3f, r0	; 63
    2260:	cd bf       	out	0x3d, r28	; 61
    2262:	ed 01       	movw	r28, r26
    2264:	08 95       	ret

00002266 <_exit>:
    2266:	f8 94       	cli

00002268 <__stop_program>:
    2268:	ff cf       	rjmp	.-2      	; 0x2268 <__stop_program>
